
mcb_main.elf:     file format elf32-littlearm

Sections:
Idx Name          Size      VMA       LMA       File off  Algn
  0 .isr_vector   000001e4  08000000  08000000  00010000  2**0
                  CONTENTS, ALLOC, LOAD, READONLY, DATA
  1 .text         0000445c  080001f0  080001f0  000101f0  2**4
                  CONTENTS, ALLOC, LOAD, READONLY, CODE
  2 .rodata       00000158  0800464c  0800464c  0001464c  2**2
                  CONTENTS, ALLOC, LOAD, READONLY, DATA
  3 .ARM.extab    00000000  080047a4  080047a4  00020010  2**0
                  CONTENTS
  4 .ARM          00000000  080047a4  080047a4  00020010  2**0
                  CONTENTS
  5 .preinit_array 00000000  080047a4  080047a4  00020010  2**0
                  CONTENTS, ALLOC, LOAD, DATA
  6 .init_array   00000004  080047a4  080047a4  000147a4  2**2
                  CONTENTS, ALLOC, LOAD, DATA
  7 .fini_array   00000004  080047a8  080047a8  000147a8  2**2
                  CONTENTS, ALLOC, LOAD, DATA
  8 .data         00000010  20000000  080047ac  00020000  2**2
                  CONTENTS, ALLOC, LOAD, DATA
  9 .bss          00001a90  20000010  080047bc  00020010  2**2
                  ALLOC
 10 ._user_heap_stack 00000600  20001aa0  080047bc  00021aa0  2**0
                  ALLOC
 11 .ARM.attributes 00000029  00000000  00000000  00020010  2**0
                  CONTENTS, READONLY
 12 .comment      0000007b  00000000  00000000  00020039  2**0
                  CONTENTS, READONLY
 13 .debug_frame  000000f8  00000000  00000000  000200b4  2**2
                  CONTENTS, READONLY, DEBUGGING

Disassembly of section .text:

080001f0 <__do_global_dtors_aux>:
 80001f0:	b510      	push	{r4, lr}
 80001f2:	4c05      	ldr	r4, [pc, #20]	; (8000208 <__do_global_dtors_aux+0x18>)
 80001f4:	7823      	ldrb	r3, [r4, #0]
 80001f6:	b933      	cbnz	r3, 8000206 <__do_global_dtors_aux+0x16>
 80001f8:	4b04      	ldr	r3, [pc, #16]	; (800020c <__do_global_dtors_aux+0x1c>)
 80001fa:	b113      	cbz	r3, 8000202 <__do_global_dtors_aux+0x12>
 80001fc:	4804      	ldr	r0, [pc, #16]	; (8000210 <__do_global_dtors_aux+0x20>)
 80001fe:	f3af 8000 	nop.w
 8000202:	2301      	movs	r3, #1
 8000204:	7023      	strb	r3, [r4, #0]
 8000206:	bd10      	pop	{r4, pc}
 8000208:	20000010 	.word	0x20000010
 800020c:	00000000 	.word	0x00000000
 8000210:	08004634 	.word	0x08004634

08000214 <frame_dummy>:
 8000214:	b508      	push	{r3, lr}
 8000216:	4b03      	ldr	r3, [pc, #12]	; (8000224 <frame_dummy+0x10>)
 8000218:	b11b      	cbz	r3, 8000222 <frame_dummy+0xe>
 800021a:	4903      	ldr	r1, [pc, #12]	; (8000228 <frame_dummy+0x14>)
 800021c:	4803      	ldr	r0, [pc, #12]	; (800022c <frame_dummy+0x18>)
 800021e:	f3af 8000 	nop.w
 8000222:	bd08      	pop	{r3, pc}
 8000224:	00000000 	.word	0x00000000
 8000228:	20000014 	.word	0x20000014
 800022c:	08004634 	.word	0x08004634

08000230 <__aeabi_frsub>:
 8000230:	f080 4000 	eor.w	r0, r0, #2147483648	; 0x80000000
 8000234:	e002      	b.n	800023c <__addsf3>
 8000236:	bf00      	nop

08000238 <__aeabi_fsub>:
 8000238:	f081 4100 	eor.w	r1, r1, #2147483648	; 0x80000000

0800023c <__addsf3>:
 800023c:	0042      	lsls	r2, r0, #1
 800023e:	bf1f      	itttt	ne
 8000240:	ea5f 0341 	movsne.w	r3, r1, lsl #1
 8000244:	ea92 0f03 	teqne	r2, r3
 8000248:	ea7f 6c22 	mvnsne.w	ip, r2, asr #24
 800024c:	ea7f 6c23 	mvnsne.w	ip, r3, asr #24
 8000250:	d06a      	beq.n	8000328 <__addsf3+0xec>
 8000252:	ea4f 6212 	mov.w	r2, r2, lsr #24
 8000256:	ebd2 6313 	rsbs	r3, r2, r3, lsr #24
 800025a:	bfc1      	itttt	gt
 800025c:	18d2      	addgt	r2, r2, r3
 800025e:	4041      	eorgt	r1, r0
 8000260:	4048      	eorgt	r0, r1
 8000262:	4041      	eorgt	r1, r0
 8000264:	bfb8      	it	lt
 8000266:	425b      	neglt	r3, r3
 8000268:	2b19      	cmp	r3, #25
 800026a:	bf88      	it	hi
 800026c:	4770      	bxhi	lr
 800026e:	f010 4f00 	tst.w	r0, #2147483648	; 0x80000000
 8000272:	f440 0000 	orr.w	r0, r0, #8388608	; 0x800000
 8000276:	f020 407f 	bic.w	r0, r0, #4278190080	; 0xff000000
 800027a:	bf18      	it	ne
 800027c:	4240      	negne	r0, r0
 800027e:	f011 4f00 	tst.w	r1, #2147483648	; 0x80000000
 8000282:	f441 0100 	orr.w	r1, r1, #8388608	; 0x800000
 8000286:	f021 417f 	bic.w	r1, r1, #4278190080	; 0xff000000
 800028a:	bf18      	it	ne
 800028c:	4249      	negne	r1, r1
 800028e:	ea92 0f03 	teq	r2, r3
 8000292:	d03f      	beq.n	8000314 <__addsf3+0xd8>
 8000294:	f1a2 0201 	sub.w	r2, r2, #1
 8000298:	fa41 fc03 	asr.w	ip, r1, r3
 800029c:	eb10 000c 	adds.w	r0, r0, ip
 80002a0:	f1c3 0320 	rsb	r3, r3, #32
 80002a4:	fa01 f103 	lsl.w	r1, r1, r3
 80002a8:	f000 4300 	and.w	r3, r0, #2147483648	; 0x80000000
 80002ac:	d502      	bpl.n	80002b4 <__addsf3+0x78>
 80002ae:	4249      	negs	r1, r1
 80002b0:	eb60 0040 	sbc.w	r0, r0, r0, lsl #1
 80002b4:	f5b0 0f00 	cmp.w	r0, #8388608	; 0x800000
 80002b8:	d313      	bcc.n	80002e2 <__addsf3+0xa6>
 80002ba:	f1b0 7f80 	cmp.w	r0, #16777216	; 0x1000000
 80002be:	d306      	bcc.n	80002ce <__addsf3+0x92>
 80002c0:	0840      	lsrs	r0, r0, #1
 80002c2:	ea4f 0131 	mov.w	r1, r1, rrx
 80002c6:	f102 0201 	add.w	r2, r2, #1
 80002ca:	2afe      	cmp	r2, #254	; 0xfe
 80002cc:	d251      	bcs.n	8000372 <__addsf3+0x136>
 80002ce:	f1b1 4f00 	cmp.w	r1, #2147483648	; 0x80000000
 80002d2:	eb40 50c2 	adc.w	r0, r0, r2, lsl #23
 80002d6:	bf08      	it	eq
 80002d8:	f020 0001 	biceq.w	r0, r0, #1
 80002dc:	ea40 0003 	orr.w	r0, r0, r3
 80002e0:	4770      	bx	lr
 80002e2:	0049      	lsls	r1, r1, #1
 80002e4:	eb40 0000 	adc.w	r0, r0, r0
 80002e8:	f410 0f00 	tst.w	r0, #8388608	; 0x800000
 80002ec:	f1a2 0201 	sub.w	r2, r2, #1
 80002f0:	d1ed      	bne.n	80002ce <__addsf3+0x92>
 80002f2:	fab0 fc80 	clz	ip, r0
 80002f6:	f1ac 0c08 	sub.w	ip, ip, #8
 80002fa:	ebb2 020c 	subs.w	r2, r2, ip
 80002fe:	fa00 f00c 	lsl.w	r0, r0, ip
 8000302:	bfaa      	itet	ge
 8000304:	eb00 50c2 	addge.w	r0, r0, r2, lsl #23
 8000308:	4252      	neglt	r2, r2
 800030a:	4318      	orrge	r0, r3
 800030c:	bfbc      	itt	lt
 800030e:	40d0      	lsrlt	r0, r2
 8000310:	4318      	orrlt	r0, r3
 8000312:	4770      	bx	lr
 8000314:	f092 0f00 	teq	r2, #0
 8000318:	f481 0100 	eor.w	r1, r1, #8388608	; 0x800000
 800031c:	bf06      	itte	eq
 800031e:	f480 0000 	eoreq.w	r0, r0, #8388608	; 0x800000
 8000322:	3201      	addeq	r2, #1
 8000324:	3b01      	subne	r3, #1
 8000326:	e7b5      	b.n	8000294 <__addsf3+0x58>
 8000328:	ea4f 0341 	mov.w	r3, r1, lsl #1
 800032c:	ea7f 6c22 	mvns.w	ip, r2, asr #24
 8000330:	bf18      	it	ne
 8000332:	ea7f 6c23 	mvnsne.w	ip, r3, asr #24
 8000336:	d021      	beq.n	800037c <__addsf3+0x140>
 8000338:	ea92 0f03 	teq	r2, r3
 800033c:	d004      	beq.n	8000348 <__addsf3+0x10c>
 800033e:	f092 0f00 	teq	r2, #0
 8000342:	bf08      	it	eq
 8000344:	4608      	moveq	r0, r1
 8000346:	4770      	bx	lr
 8000348:	ea90 0f01 	teq	r0, r1
 800034c:	bf1c      	itt	ne
 800034e:	2000      	movne	r0, #0
 8000350:	4770      	bxne	lr
 8000352:	f012 4f7f 	tst.w	r2, #4278190080	; 0xff000000
 8000356:	d104      	bne.n	8000362 <__addsf3+0x126>
 8000358:	0040      	lsls	r0, r0, #1
 800035a:	bf28      	it	cs
 800035c:	f040 4000 	orrcs.w	r0, r0, #2147483648	; 0x80000000
 8000360:	4770      	bx	lr
 8000362:	f112 7200 	adds.w	r2, r2, #33554432	; 0x2000000
 8000366:	bf3c      	itt	cc
 8000368:	f500 0000 	addcc.w	r0, r0, #8388608	; 0x800000
 800036c:	4770      	bxcc	lr
 800036e:	f000 4300 	and.w	r3, r0, #2147483648	; 0x80000000
 8000372:	f043 40fe 	orr.w	r0, r3, #2130706432	; 0x7f000000
 8000376:	f440 0000 	orr.w	r0, r0, #8388608	; 0x800000
 800037a:	4770      	bx	lr
 800037c:	ea7f 6222 	mvns.w	r2, r2, asr #24
 8000380:	bf16      	itet	ne
 8000382:	4608      	movne	r0, r1
 8000384:	ea7f 6323 	mvnseq.w	r3, r3, asr #24
 8000388:	4601      	movne	r1, r0
 800038a:	0242      	lsls	r2, r0, #9
 800038c:	bf06      	itte	eq
 800038e:	ea5f 2341 	movseq.w	r3, r1, lsl #9
 8000392:	ea90 0f01 	teqeq	r0, r1
 8000396:	f440 0080 	orrne.w	r0, r0, #4194304	; 0x400000
 800039a:	4770      	bx	lr

0800039c <__aeabi_ui2f>:
 800039c:	f04f 0300 	mov.w	r3, #0
 80003a0:	e004      	b.n	80003ac <__aeabi_i2f+0x8>
 80003a2:	bf00      	nop

080003a4 <__aeabi_i2f>:
 80003a4:	f010 4300 	ands.w	r3, r0, #2147483648	; 0x80000000
 80003a8:	bf48      	it	mi
 80003aa:	4240      	negmi	r0, r0
 80003ac:	ea5f 0c00 	movs.w	ip, r0
 80003b0:	bf08      	it	eq
 80003b2:	4770      	bxeq	lr
 80003b4:	f043 4396 	orr.w	r3, r3, #1258291200	; 0x4b000000
 80003b8:	4601      	mov	r1, r0
 80003ba:	f04f 0000 	mov.w	r0, #0
 80003be:	e01c      	b.n	80003fa <__aeabi_l2f+0x2a>

080003c0 <__aeabi_ul2f>:
 80003c0:	ea50 0201 	orrs.w	r2, r0, r1
 80003c4:	bf08      	it	eq
 80003c6:	4770      	bxeq	lr
 80003c8:	f04f 0300 	mov.w	r3, #0
 80003cc:	e00a      	b.n	80003e4 <__aeabi_l2f+0x14>
 80003ce:	bf00      	nop

080003d0 <__aeabi_l2f>:
 80003d0:	ea50 0201 	orrs.w	r2, r0, r1
 80003d4:	bf08      	it	eq
 80003d6:	4770      	bxeq	lr
 80003d8:	f011 4300 	ands.w	r3, r1, #2147483648	; 0x80000000
 80003dc:	d502      	bpl.n	80003e4 <__aeabi_l2f+0x14>
 80003de:	4240      	negs	r0, r0
 80003e0:	eb61 0141 	sbc.w	r1, r1, r1, lsl #1
 80003e4:	ea5f 0c01 	movs.w	ip, r1
 80003e8:	bf02      	ittt	eq
 80003ea:	4684      	moveq	ip, r0
 80003ec:	4601      	moveq	r1, r0
 80003ee:	2000      	moveq	r0, #0
 80003f0:	f043 43b6 	orr.w	r3, r3, #1526726656	; 0x5b000000
 80003f4:	bf08      	it	eq
 80003f6:	f1a3 5380 	subeq.w	r3, r3, #268435456	; 0x10000000
 80003fa:	f5a3 0300 	sub.w	r3, r3, #8388608	; 0x800000
 80003fe:	fabc f28c 	clz	r2, ip
 8000402:	3a08      	subs	r2, #8
 8000404:	eba3 53c2 	sub.w	r3, r3, r2, lsl #23
 8000408:	db10      	blt.n	800042c <__aeabi_l2f+0x5c>
 800040a:	fa01 fc02 	lsl.w	ip, r1, r2
 800040e:	4463      	add	r3, ip
 8000410:	fa00 fc02 	lsl.w	ip, r0, r2
 8000414:	f1c2 0220 	rsb	r2, r2, #32
 8000418:	f1bc 4f00 	cmp.w	ip, #2147483648	; 0x80000000
 800041c:	fa20 f202 	lsr.w	r2, r0, r2
 8000420:	eb43 0002 	adc.w	r0, r3, r2
 8000424:	bf08      	it	eq
 8000426:	f020 0001 	biceq.w	r0, r0, #1
 800042a:	4770      	bx	lr
 800042c:	f102 0220 	add.w	r2, r2, #32
 8000430:	fa01 fc02 	lsl.w	ip, r1, r2
 8000434:	f1c2 0220 	rsb	r2, r2, #32
 8000438:	ea50 004c 	orrs.w	r0, r0, ip, lsl #1
 800043c:	fa21 f202 	lsr.w	r2, r1, r2
 8000440:	eb43 0002 	adc.w	r0, r3, r2
 8000444:	bf08      	it	eq
 8000446:	ea20 70dc 	biceq.w	r0, r0, ip, lsr #31
 800044a:	4770      	bx	lr

0800044c <__aeabi_fmul>:
 800044c:	f04f 0cff 	mov.w	ip, #255	; 0xff
 8000450:	ea1c 52d0 	ands.w	r2, ip, r0, lsr #23
 8000454:	bf1e      	ittt	ne
 8000456:	ea1c 53d1 	andsne.w	r3, ip, r1, lsr #23
 800045a:	ea92 0f0c 	teqne	r2, ip
 800045e:	ea93 0f0c 	teqne	r3, ip
 8000462:	d06f      	beq.n	8000544 <__aeabi_fmul+0xf8>
 8000464:	441a      	add	r2, r3
 8000466:	ea80 0c01 	eor.w	ip, r0, r1
 800046a:	0240      	lsls	r0, r0, #9
 800046c:	bf18      	it	ne
 800046e:	ea5f 2141 	movsne.w	r1, r1, lsl #9
 8000472:	d01e      	beq.n	80004b2 <__aeabi_fmul+0x66>
 8000474:	f04f 6300 	mov.w	r3, #134217728	; 0x8000000
 8000478:	ea43 1050 	orr.w	r0, r3, r0, lsr #5
 800047c:	ea43 1151 	orr.w	r1, r3, r1, lsr #5
 8000480:	fba0 3101 	umull	r3, r1, r0, r1
 8000484:	f00c 4000 	and.w	r0, ip, #2147483648	; 0x80000000
 8000488:	f5b1 0f00 	cmp.w	r1, #8388608	; 0x800000
 800048c:	bf3e      	ittt	cc
 800048e:	0049      	lslcc	r1, r1, #1
 8000490:	ea41 71d3 	orrcc.w	r1, r1, r3, lsr #31
 8000494:	005b      	lslcc	r3, r3, #1
 8000496:	ea40 0001 	orr.w	r0, r0, r1
 800049a:	f162 027f 	sbc.w	r2, r2, #127	; 0x7f
 800049e:	2afd      	cmp	r2, #253	; 0xfd
 80004a0:	d81d      	bhi.n	80004de <__aeabi_fmul+0x92>
 80004a2:	f1b3 4f00 	cmp.w	r3, #2147483648	; 0x80000000
 80004a6:	eb40 50c2 	adc.w	r0, r0, r2, lsl #23
 80004aa:	bf08      	it	eq
 80004ac:	f020 0001 	biceq.w	r0, r0, #1
 80004b0:	4770      	bx	lr
 80004b2:	f090 0f00 	teq	r0, #0
 80004b6:	f00c 4c00 	and.w	ip, ip, #2147483648	; 0x80000000
 80004ba:	bf08      	it	eq
 80004bc:	0249      	lsleq	r1, r1, #9
 80004be:	ea4c 2050 	orr.w	r0, ip, r0, lsr #9
 80004c2:	ea40 2051 	orr.w	r0, r0, r1, lsr #9
 80004c6:	3a7f      	subs	r2, #127	; 0x7f
 80004c8:	bfc2      	ittt	gt
 80004ca:	f1d2 03ff 	rsbsgt	r3, r2, #255	; 0xff
 80004ce:	ea40 50c2 	orrgt.w	r0, r0, r2, lsl #23
 80004d2:	4770      	bxgt	lr
 80004d4:	f440 0000 	orr.w	r0, r0, #8388608	; 0x800000
 80004d8:	f04f 0300 	mov.w	r3, #0
 80004dc:	3a01      	subs	r2, #1
 80004de:	dc5d      	bgt.n	800059c <__aeabi_fmul+0x150>
 80004e0:	f112 0f19 	cmn.w	r2, #25
 80004e4:	bfdc      	itt	le
 80004e6:	f000 4000 	andle.w	r0, r0, #2147483648	; 0x80000000
 80004ea:	4770      	bxle	lr
 80004ec:	f1c2 0200 	rsb	r2, r2, #0
 80004f0:	0041      	lsls	r1, r0, #1
 80004f2:	fa21 f102 	lsr.w	r1, r1, r2
 80004f6:	f1c2 0220 	rsb	r2, r2, #32
 80004fa:	fa00 fc02 	lsl.w	ip, r0, r2
 80004fe:	ea5f 0031 	movs.w	r0, r1, rrx
 8000502:	f140 0000 	adc.w	r0, r0, #0
 8000506:	ea53 034c 	orrs.w	r3, r3, ip, lsl #1
 800050a:	bf08      	it	eq
 800050c:	ea20 70dc 	biceq.w	r0, r0, ip, lsr #31
 8000510:	4770      	bx	lr
 8000512:	f092 0f00 	teq	r2, #0
 8000516:	f000 4c00 	and.w	ip, r0, #2147483648	; 0x80000000
 800051a:	bf02      	ittt	eq
 800051c:	0040      	lsleq	r0, r0, #1
 800051e:	f410 0f00 	tsteq.w	r0, #8388608	; 0x800000
 8000522:	3a01      	subeq	r2, #1
 8000524:	d0f9      	beq.n	800051a <__aeabi_fmul+0xce>
 8000526:	ea40 000c 	orr.w	r0, r0, ip
 800052a:	f093 0f00 	teq	r3, #0
 800052e:	f001 4c00 	and.w	ip, r1, #2147483648	; 0x80000000
 8000532:	bf02      	ittt	eq
 8000534:	0049      	lsleq	r1, r1, #1
 8000536:	f411 0f00 	tsteq.w	r1, #8388608	; 0x800000
 800053a:	3b01      	subeq	r3, #1
 800053c:	d0f9      	beq.n	8000532 <__aeabi_fmul+0xe6>
 800053e:	ea41 010c 	orr.w	r1, r1, ip
 8000542:	e78f      	b.n	8000464 <__aeabi_fmul+0x18>
 8000544:	ea0c 53d1 	and.w	r3, ip, r1, lsr #23
 8000548:	ea92 0f0c 	teq	r2, ip
 800054c:	bf18      	it	ne
 800054e:	ea93 0f0c 	teqne	r3, ip
 8000552:	d00a      	beq.n	800056a <__aeabi_fmul+0x11e>
 8000554:	f030 4c00 	bics.w	ip, r0, #2147483648	; 0x80000000
 8000558:	bf18      	it	ne
 800055a:	f031 4c00 	bicsne.w	ip, r1, #2147483648	; 0x80000000
 800055e:	d1d8      	bne.n	8000512 <__aeabi_fmul+0xc6>
 8000560:	ea80 0001 	eor.w	r0, r0, r1
 8000564:	f000 4000 	and.w	r0, r0, #2147483648	; 0x80000000
 8000568:	4770      	bx	lr
 800056a:	f090 0f00 	teq	r0, #0
 800056e:	bf17      	itett	ne
 8000570:	f090 4f00 	teqne	r0, #2147483648	; 0x80000000
 8000574:	4608      	moveq	r0, r1
 8000576:	f091 0f00 	teqne	r1, #0
 800057a:	f091 4f00 	teqne	r1, #2147483648	; 0x80000000
 800057e:	d014      	beq.n	80005aa <__aeabi_fmul+0x15e>
 8000580:	ea92 0f0c 	teq	r2, ip
 8000584:	d101      	bne.n	800058a <__aeabi_fmul+0x13e>
 8000586:	0242      	lsls	r2, r0, #9
 8000588:	d10f      	bne.n	80005aa <__aeabi_fmul+0x15e>
 800058a:	ea93 0f0c 	teq	r3, ip
 800058e:	d103      	bne.n	8000598 <__aeabi_fmul+0x14c>
 8000590:	024b      	lsls	r3, r1, #9
 8000592:	bf18      	it	ne
 8000594:	4608      	movne	r0, r1
 8000596:	d108      	bne.n	80005aa <__aeabi_fmul+0x15e>
 8000598:	ea80 0001 	eor.w	r0, r0, r1
 800059c:	f000 4000 	and.w	r0, r0, #2147483648	; 0x80000000
 80005a0:	f040 40fe 	orr.w	r0, r0, #2130706432	; 0x7f000000
 80005a4:	f440 0000 	orr.w	r0, r0, #8388608	; 0x800000
 80005a8:	4770      	bx	lr
 80005aa:	f040 40fe 	orr.w	r0, r0, #2130706432	; 0x7f000000
 80005ae:	f440 0040 	orr.w	r0, r0, #12582912	; 0xc00000
 80005b2:	4770      	bx	lr

080005b4 <__aeabi_fdiv>:
 80005b4:	f04f 0cff 	mov.w	ip, #255	; 0xff
 80005b8:	ea1c 52d0 	ands.w	r2, ip, r0, lsr #23
 80005bc:	bf1e      	ittt	ne
 80005be:	ea1c 53d1 	andsne.w	r3, ip, r1, lsr #23
 80005c2:	ea92 0f0c 	teqne	r2, ip
 80005c6:	ea93 0f0c 	teqne	r3, ip
 80005ca:	d069      	beq.n	80006a0 <__aeabi_fdiv+0xec>
 80005cc:	eba2 0203 	sub.w	r2, r2, r3
 80005d0:	ea80 0c01 	eor.w	ip, r0, r1
 80005d4:	0249      	lsls	r1, r1, #9
 80005d6:	ea4f 2040 	mov.w	r0, r0, lsl #9
 80005da:	d037      	beq.n	800064c <__aeabi_fdiv+0x98>
 80005dc:	f04f 5380 	mov.w	r3, #268435456	; 0x10000000
 80005e0:	ea43 1111 	orr.w	r1, r3, r1, lsr #4
 80005e4:	ea43 1310 	orr.w	r3, r3, r0, lsr #4
 80005e8:	f00c 4000 	and.w	r0, ip, #2147483648	; 0x80000000
 80005ec:	428b      	cmp	r3, r1
 80005ee:	bf38      	it	cc
 80005f0:	005b      	lslcc	r3, r3, #1
 80005f2:	f142 027d 	adc.w	r2, r2, #125	; 0x7d
 80005f6:	f44f 0c00 	mov.w	ip, #8388608	; 0x800000
 80005fa:	428b      	cmp	r3, r1
 80005fc:	bf24      	itt	cs
 80005fe:	1a5b      	subcs	r3, r3, r1
 8000600:	ea40 000c 	orrcs.w	r0, r0, ip
 8000604:	ebb3 0f51 	cmp.w	r3, r1, lsr #1
 8000608:	bf24      	itt	cs
 800060a:	eba3 0351 	subcs.w	r3, r3, r1, lsr #1
 800060e:	ea40 005c 	orrcs.w	r0, r0, ip, lsr #1
 8000612:	ebb3 0f91 	cmp.w	r3, r1, lsr #2
 8000616:	bf24      	itt	cs
 8000618:	eba3 0391 	subcs.w	r3, r3, r1, lsr #2
 800061c:	ea40 009c 	orrcs.w	r0, r0, ip, lsr #2
 8000620:	ebb3 0fd1 	cmp.w	r3, r1, lsr #3
 8000624:	bf24      	itt	cs
 8000626:	eba3 03d1 	subcs.w	r3, r3, r1, lsr #3
 800062a:	ea40 00dc 	orrcs.w	r0, r0, ip, lsr #3
 800062e:	011b      	lsls	r3, r3, #4
 8000630:	bf18      	it	ne
 8000632:	ea5f 1c1c 	movsne.w	ip, ip, lsr #4
 8000636:	d1e0      	bne.n	80005fa <__aeabi_fdiv+0x46>
 8000638:	2afd      	cmp	r2, #253	; 0xfd
 800063a:	f63f af50 	bhi.w	80004de <__aeabi_fmul+0x92>
 800063e:	428b      	cmp	r3, r1
 8000640:	eb40 50c2 	adc.w	r0, r0, r2, lsl #23
 8000644:	bf08      	it	eq
 8000646:	f020 0001 	biceq.w	r0, r0, #1
 800064a:	4770      	bx	lr
 800064c:	f00c 4c00 	and.w	ip, ip, #2147483648	; 0x80000000
 8000650:	ea4c 2050 	orr.w	r0, ip, r0, lsr #9
 8000654:	327f      	adds	r2, #127	; 0x7f
 8000656:	bfc2      	ittt	gt
 8000658:	f1d2 03ff 	rsbsgt	r3, r2, #255	; 0xff
 800065c:	ea40 50c2 	orrgt.w	r0, r0, r2, lsl #23
 8000660:	4770      	bxgt	lr
 8000662:	f440 0000 	orr.w	r0, r0, #8388608	; 0x800000
 8000666:	f04f 0300 	mov.w	r3, #0
 800066a:	3a01      	subs	r2, #1
 800066c:	e737      	b.n	80004de <__aeabi_fmul+0x92>
 800066e:	f092 0f00 	teq	r2, #0
 8000672:	f000 4c00 	and.w	ip, r0, #2147483648	; 0x80000000
 8000676:	bf02      	ittt	eq
 8000678:	0040      	lsleq	r0, r0, #1
 800067a:	f410 0f00 	tsteq.w	r0, #8388608	; 0x800000
 800067e:	3a01      	subeq	r2, #1
 8000680:	d0f9      	beq.n	8000676 <__aeabi_fdiv+0xc2>
 8000682:	ea40 000c 	orr.w	r0, r0, ip
 8000686:	f093 0f00 	teq	r3, #0
 800068a:	f001 4c00 	and.w	ip, r1, #2147483648	; 0x80000000
 800068e:	bf02      	ittt	eq
 8000690:	0049      	lsleq	r1, r1, #1
 8000692:	f411 0f00 	tsteq.w	r1, #8388608	; 0x800000
 8000696:	3b01      	subeq	r3, #1
 8000698:	d0f9      	beq.n	800068e <__aeabi_fdiv+0xda>
 800069a:	ea41 010c 	orr.w	r1, r1, ip
 800069e:	e795      	b.n	80005cc <__aeabi_fdiv+0x18>
 80006a0:	ea0c 53d1 	and.w	r3, ip, r1, lsr #23
 80006a4:	ea92 0f0c 	teq	r2, ip
 80006a8:	d108      	bne.n	80006bc <__aeabi_fdiv+0x108>
 80006aa:	0242      	lsls	r2, r0, #9
 80006ac:	f47f af7d 	bne.w	80005aa <__aeabi_fmul+0x15e>
 80006b0:	ea93 0f0c 	teq	r3, ip
 80006b4:	f47f af70 	bne.w	8000598 <__aeabi_fmul+0x14c>
 80006b8:	4608      	mov	r0, r1
 80006ba:	e776      	b.n	80005aa <__aeabi_fmul+0x15e>
 80006bc:	ea93 0f0c 	teq	r3, ip
 80006c0:	d104      	bne.n	80006cc <__aeabi_fdiv+0x118>
 80006c2:	024b      	lsls	r3, r1, #9
 80006c4:	f43f af4c 	beq.w	8000560 <__aeabi_fmul+0x114>
 80006c8:	4608      	mov	r0, r1
 80006ca:	e76e      	b.n	80005aa <__aeabi_fmul+0x15e>
 80006cc:	f030 4c00 	bics.w	ip, r0, #2147483648	; 0x80000000
 80006d0:	bf18      	it	ne
 80006d2:	f031 4c00 	bicsne.w	ip, r1, #2147483648	; 0x80000000
 80006d6:	d1ca      	bne.n	800066e <__aeabi_fdiv+0xba>
 80006d8:	f030 4200 	bics.w	r2, r0, #2147483648	; 0x80000000
 80006dc:	f47f af5c 	bne.w	8000598 <__aeabi_fmul+0x14c>
 80006e0:	f031 4300 	bics.w	r3, r1, #2147483648	; 0x80000000
 80006e4:	f47f af3c 	bne.w	8000560 <__aeabi_fmul+0x114>
 80006e8:	e75f      	b.n	80005aa <__aeabi_fmul+0x15e>
 80006ea:	bf00      	nop

080006ec <MX_ADC1_Init>:
 80006ec:	4811      	ldr	r0, [pc, #68]	; (8000734 <MX_ADC1_Init+0x48>)
 80006ee:	4b12      	ldr	r3, [pc, #72]	; (8000738 <MX_ADC1_Init+0x4c>)
 80006f0:	b530      	push	{r4, r5, lr}
 80006f2:	2400      	movs	r4, #0
 80006f4:	2501      	movs	r5, #1
 80006f6:	6003      	str	r3, [r0, #0]
 80006f8:	f44f 2360 	mov.w	r3, #917504	; 0xe0000
 80006fc:	b085      	sub	sp, #20
 80006fe:	e9cd 4401 	strd	r4, r4, [sp, #4]
 8000702:	9403      	str	r4, [sp, #12]
 8000704:	6084      	str	r4, [r0, #8]
 8000706:	7305      	strb	r5, [r0, #12]
 8000708:	7504      	strb	r4, [r0, #20]
 800070a:	61c3      	str	r3, [r0, #28]
 800070c:	6044      	str	r4, [r0, #4]
 800070e:	6105      	str	r5, [r0, #16]
 8000710:	f000 fd98 	bl	8001244 <HAL_ADC_Init>
 8000714:	b108      	cbz	r0, 800071a <MX_ADC1_Init+0x2e>
 8000716:	f000 fae7 	bl	8000ce8 <Error_Handler>
 800071a:	a901      	add	r1, sp, #4
 800071c:	4805      	ldr	r0, [pc, #20]	; (8000734 <MX_ADC1_Init+0x48>)
 800071e:	e9cd 4501 	strd	r4, r5, [sp, #4]
 8000722:	9403      	str	r4, [sp, #12]
 8000724:	f000 fc28 	bl	8000f78 <HAL_ADC_ConfigChannel>
 8000728:	b108      	cbz	r0, 800072e <MX_ADC1_Init+0x42>
 800072a:	f000 fadd 	bl	8000ce8 <Error_Handler>
 800072e:	b005      	add	sp, #20
 8000730:	bd30      	pop	{r4, r5, pc}
 8000732:	bf00      	nop
 8000734:	20001930 	.word	0x20001930
 8000738:	40012400 	.word	0x40012400

0800073c <HAL_ADC_MspInit>:
 800073c:	b530      	push	{r4, r5, lr}
 800073e:	4605      	mov	r5, r0
 8000740:	b087      	sub	sp, #28
 8000742:	2210      	movs	r2, #16
 8000744:	2100      	movs	r1, #0
 8000746:	a802      	add	r0, sp, #8
 8000748:	f003 ff6b 	bl	8004622 <memset>
 800074c:	682a      	ldr	r2, [r5, #0]
 800074e:	4b1c      	ldr	r3, [pc, #112]	; (80007c0 <HAL_ADC_MspInit+0x84>)
 8000750:	429a      	cmp	r2, r3
 8000752:	d133      	bne.n	80007bc <HAL_ADC_MspInit+0x80>
 8000754:	f503 436c 	add.w	r3, r3, #60416	; 0xec00
 8000758:	699a      	ldr	r2, [r3, #24]
 800075a:	a902      	add	r1, sp, #8
 800075c:	f442 7200 	orr.w	r2, r2, #512	; 0x200
 8000760:	619a      	str	r2, [r3, #24]
 8000762:	699a      	ldr	r2, [r3, #24]
 8000764:	4817      	ldr	r0, [pc, #92]	; (80007c4 <HAL_ADC_MspInit+0x88>)
 8000766:	f402 7200 	and.w	r2, r2, #512	; 0x200
 800076a:	9200      	str	r2, [sp, #0]
 800076c:	9a00      	ldr	r2, [sp, #0]
 800076e:	699a      	ldr	r2, [r3, #24]
 8000770:	4c15      	ldr	r4, [pc, #84]	; (80007c8 <HAL_ADC_MspInit+0x8c>)
 8000772:	f042 0204 	orr.w	r2, r2, #4
 8000776:	619a      	str	r2, [r3, #24]
 8000778:	699b      	ldr	r3, [r3, #24]
 800077a:	2201      	movs	r2, #1
 800077c:	f003 0304 	and.w	r3, r3, #4
 8000780:	9301      	str	r3, [sp, #4]
 8000782:	9b01      	ldr	r3, [sp, #4]
 8000784:	2303      	movs	r3, #3
 8000786:	e9cd 2302 	strd	r2, r3, [sp, #8]
 800078a:	f001 f8eb 	bl	8001964 <HAL_GPIO_Init>
 800078e:	2080      	movs	r0, #128	; 0x80
 8000790:	f44f 7280 	mov.w	r2, #256	; 0x100
 8000794:	2300      	movs	r3, #0
 8000796:	e9c4 0203 	strd	r0, r2, [r4, #12]
 800079a:	f44f 6280 	mov.w	r2, #1024	; 0x400
 800079e:	490b      	ldr	r1, [pc, #44]	; (80007cc <HAL_ADC_MspInit+0x90>)
 80007a0:	4620      	mov	r0, r4
 80007a2:	e9c4 1300 	strd	r1, r3, [r4]
 80007a6:	60a3      	str	r3, [r4, #8]
 80007a8:	e9c4 2305 	strd	r2, r3, [r4, #20]
 80007ac:	61e3      	str	r3, [r4, #28]
 80007ae:	f000 ff1b 	bl	80015e8 <HAL_DMA_Init>
 80007b2:	b108      	cbz	r0, 80007b8 <HAL_ADC_MspInit+0x7c>
 80007b4:	f000 fa98 	bl	8000ce8 <Error_Handler>
 80007b8:	622c      	str	r4, [r5, #32]
 80007ba:	6265      	str	r5, [r4, #36]	; 0x24
 80007bc:	b007      	add	sp, #28
 80007be:	bd30      	pop	{r4, r5, pc}
 80007c0:	40012400 	.word	0x40012400
 80007c4:	40010800 	.word	0x40010800
 80007c8:	20001960 	.word	0x20001960
 80007cc:	40020008 	.word	0x40020008

080007d0 <MX_CAN_Init>:
 80007d0:	b508      	push	{r3, lr}
 80007d2:	2310      	movs	r3, #16
 80007d4:	480b      	ldr	r0, [pc, #44]	; (8000804 <MX_CAN_Init+0x34>)
 80007d6:	4a0c      	ldr	r2, [pc, #48]	; (8000808 <MX_CAN_Init+0x38>)
 80007d8:	e9c0 2300 	strd	r2, r3, [r0]
 80007dc:	2300      	movs	r3, #0
 80007de:	e9c0 3302 	strd	r3, r3, [r0, #8]
 80007e2:	e9c0 3304 	strd	r3, r3, [r0, #16]
 80007e6:	7603      	strb	r3, [r0, #24]
 80007e8:	7643      	strb	r3, [r0, #25]
 80007ea:	7683      	strb	r3, [r0, #26]
 80007ec:	76c3      	strb	r3, [r0, #27]
 80007ee:	7703      	strb	r3, [r0, #28]
 80007f0:	7743      	strb	r3, [r0, #29]
 80007f2:	f000 fdb1 	bl	8001358 <HAL_CAN_Init>
 80007f6:	b118      	cbz	r0, 8000800 <MX_CAN_Init+0x30>
 80007f8:	e8bd 4008 	ldmia.w	sp!, {r3, lr}
 80007fc:	f000 ba74 	b.w	8000ce8 <Error_Handler>
 8000800:	bd08      	pop	{r3, pc}
 8000802:	bf00      	nop
 8000804:	200019a4 	.word	0x200019a4
 8000808:	40006400 	.word	0x40006400

0800080c <HAL_CAN_MspInit>:
 800080c:	b510      	push	{r4, lr}
 800080e:	4604      	mov	r4, r0
 8000810:	b086      	sub	sp, #24
 8000812:	2210      	movs	r2, #16
 8000814:	2100      	movs	r1, #0
 8000816:	a802      	add	r0, sp, #8
 8000818:	f003 ff03 	bl	8004622 <memset>
 800081c:	6822      	ldr	r2, [r4, #0]
 800081e:	4b1a      	ldr	r3, [pc, #104]	; (8000888 <HAL_CAN_MspInit+0x7c>)
 8000820:	429a      	cmp	r2, r3
 8000822:	d12e      	bne.n	8000882 <HAL_CAN_MspInit+0x76>
 8000824:	f503 33d6 	add.w	r3, r3, #109568	; 0x1ac00
 8000828:	69da      	ldr	r2, [r3, #28]
 800082a:	a902      	add	r1, sp, #8
 800082c:	f042 7200 	orr.w	r2, r2, #33554432	; 0x2000000
 8000830:	61da      	str	r2, [r3, #28]
 8000832:	69da      	ldr	r2, [r3, #28]
 8000834:	4815      	ldr	r0, [pc, #84]	; (800088c <HAL_CAN_MspInit+0x80>)
 8000836:	f002 7200 	and.w	r2, r2, #33554432	; 0x2000000
 800083a:	9200      	str	r2, [sp, #0]
 800083c:	9a00      	ldr	r2, [sp, #0]
 800083e:	699a      	ldr	r2, [r3, #24]
 8000840:	f042 0208 	orr.w	r2, r2, #8
 8000844:	619a      	str	r2, [r3, #24]
 8000846:	699b      	ldr	r3, [r3, #24]
 8000848:	f003 0308 	and.w	r3, r3, #8
 800084c:	9301      	str	r3, [sp, #4]
 800084e:	9b01      	ldr	r3, [sp, #4]
 8000850:	f44f 7380 	mov.w	r3, #256	; 0x100
 8000854:	9302      	str	r3, [sp, #8]
 8000856:	f001 f885 	bl	8001964 <HAL_GPIO_Init>
 800085a:	f44f 7200 	mov.w	r2, #512	; 0x200
 800085e:	2302      	movs	r3, #2
 8000860:	e9cd 2302 	strd	r2, r3, [sp, #8]
 8000864:	2303      	movs	r3, #3
 8000866:	a902      	add	r1, sp, #8
 8000868:	4808      	ldr	r0, [pc, #32]	; (800088c <HAL_CAN_MspInit+0x80>)
 800086a:	9305      	str	r3, [sp, #20]
 800086c:	f001 f87a 	bl	8001964 <HAL_GPIO_Init>
 8000870:	4a07      	ldr	r2, [pc, #28]	; (8000890 <HAL_CAN_MspInit+0x84>)
 8000872:	6853      	ldr	r3, [r2, #4]
 8000874:	f423 43c0 	bic.w	r3, r3, #24576	; 0x6000
 8000878:	f043 63e0 	orr.w	r3, r3, #117440512	; 0x7000000
 800087c:	f443 4380 	orr.w	r3, r3, #16384	; 0x4000
 8000880:	6053      	str	r3, [r2, #4]
 8000882:	b006      	add	sp, #24
 8000884:	bd10      	pop	{r4, pc}
 8000886:	bf00      	nop
 8000888:	40006400 	.word	0x40006400
 800088c:	40010c00 	.word	0x40010c00
 8000890:	40010000 	.word	0x40010000

08000894 <MX_DMA_Init>:
 8000894:	4b0a      	ldr	r3, [pc, #40]	; (80008c0 <MX_DMA_Init+0x2c>)
 8000896:	b507      	push	{r0, r1, r2, lr}
 8000898:	695a      	ldr	r2, [r3, #20]
 800089a:	2105      	movs	r1, #5
 800089c:	f042 0201 	orr.w	r2, r2, #1
 80008a0:	615a      	str	r2, [r3, #20]
 80008a2:	695b      	ldr	r3, [r3, #20]
 80008a4:	2200      	movs	r2, #0
 80008a6:	f003 0301 	and.w	r3, r3, #1
 80008aa:	9301      	str	r3, [sp, #4]
 80008ac:	200b      	movs	r0, #11
 80008ae:	9b01      	ldr	r3, [sp, #4]
 80008b0:	f000 fe58 	bl	8001564 <HAL_NVIC_SetPriority>
 80008b4:	200b      	movs	r0, #11
 80008b6:	b003      	add	sp, #12
 80008b8:	f85d eb04 	ldr.w	lr, [sp], #4
 80008bc:	f000 be86 	b.w	80015cc <HAL_NVIC_EnableIRQ>
 80008c0:	40021000 	.word	0x40021000

080008c4 <EncoderInit>:
 80008c4:	4b22      	ldr	r3, [pc, #136]	; (8000950 <EncoderInit+0x8c>)
 80008c6:	699a      	ldr	r2, [r3, #24]
 80008c8:	f042 0201 	orr.w	r2, r2, #1
 80008cc:	619a      	str	r2, [r3, #24]
 80008ce:	699a      	ldr	r2, [r3, #24]
 80008d0:	f442 6200 	orr.w	r2, r2, #2048	; 0x800
 80008d4:	619a      	str	r2, [r3, #24]
 80008d6:	699a      	ldr	r2, [r3, #24]
 80008d8:	f042 0204 	orr.w	r2, r2, #4
 80008dc:	619a      	str	r2, [r3, #24]
 80008de:	f5a3 3384 	sub.w	r3, r3, #67584	; 0x10800
 80008e2:	685a      	ldr	r2, [r3, #4]
 80008e4:	2200      	movs	r2, #0
 80008e6:	605a      	str	r2, [r3, #4]
 80008e8:	685a      	ldr	r2, [r3, #4]
 80008ea:	f042 0244 	orr.w	r2, r2, #68	; 0x44
 80008ee:	605a      	str	r2, [r3, #4]
 80008f0:	4a18      	ldr	r2, [pc, #96]	; (8000954 <EncoderInit+0x90>)
 80008f2:	6853      	ldr	r3, [r2, #4]
 80008f4:	f423 6388 	bic.w	r3, r3, #1088	; 0x440
 80008f8:	6053      	str	r3, [r2, #4]
 80008fa:	4b17      	ldr	r3, [pc, #92]	; (8000958 <EncoderInit+0x94>)
 80008fc:	699a      	ldr	r2, [r3, #24]
 80008fe:	f042 0201 	orr.w	r2, r2, #1
 8000902:	619a      	str	r2, [r3, #24]
 8000904:	699a      	ldr	r2, [r3, #24]
 8000906:	f442 7280 	orr.w	r2, r2, #256	; 0x100
 800090a:	619a      	str	r2, [r3, #24]
 800090c:	6a1a      	ldr	r2, [r3, #32]
 800090e:	f022 0202 	bic.w	r2, r2, #2
 8000912:	621a      	str	r2, [r3, #32]
 8000914:	6a1a      	ldr	r2, [r3, #32]
 8000916:	f022 0208 	bic.w	r2, r2, #8
 800091a:	621a      	str	r2, [r3, #32]
 800091c:	6a1a      	ldr	r2, [r3, #32]
 800091e:	f022 0220 	bic.w	r2, r2, #32
 8000922:	621a      	str	r2, [r3, #32]
 8000924:	6a1a      	ldr	r2, [r3, #32]
 8000926:	f022 0280 	bic.w	r2, r2, #128	; 0x80
 800092a:	621a      	str	r2, [r3, #32]
 800092c:	6a1a      	ldr	r2, [r3, #32]
 800092e:	f042 0201 	orr.w	r2, r2, #1
 8000932:	621a      	str	r2, [r3, #32]
 8000934:	6a1a      	ldr	r2, [r3, #32]
 8000936:	f042 0210 	orr.w	r2, r2, #16
 800093a:	621a      	str	r2, [r3, #32]
 800093c:	689a      	ldr	r2, [r3, #8]
 800093e:	f042 0211 	orr.w	r2, r2, #17
 8000942:	609a      	str	r2, [r3, #8]
 8000944:	681a      	ldr	r2, [r3, #0]
 8000946:	f042 0201 	orr.w	r2, r2, #1
 800094a:	601a      	str	r2, [r3, #0]
 800094c:	4770      	bx	lr
 800094e:	bf00      	nop
 8000950:	40021000 	.word	0x40021000
 8000954:	40010000 	.word	0x40010000
 8000958:	40012c00 	.word	0x40012c00

0800095c <EncoderRead>:
 800095c:	4b09      	ldr	r3, [pc, #36]	; (8000984 <EncoderRead+0x28>)
 800095e:	6a5b      	ldr	r3, [r3, #36]	; 0x24
 8000960:	b29b      	uxth	r3, r3
 8000962:	2b0e      	cmp	r3, #14
 8000964:	d90c      	bls.n	8000980 <EncoderRead+0x24>
 8000966:	2bcf      	cmp	r3, #207	; 0xcf
 8000968:	d805      	bhi.n	8000976 <EncoderRead+0x1a>
 800096a:	3b0f      	subs	r3, #15
 800096c:	2b40      	cmp	r3, #64	; 0x40
 800096e:	bf94      	ite	ls
 8000970:	2000      	movls	r0, #0
 8000972:	2010      	movhi	r0, #16
 8000974:	4770      	bx	lr
 8000976:	2bfe      	cmp	r3, #254	; 0xfe
 8000978:	bf8c      	ite	hi
 800097a:	2000      	movhi	r0, #0
 800097c:	2010      	movls	r0, #16
 800097e:	4770      	bx	lr
 8000980:	2000      	movs	r0, #0
 8000982:	4770      	bx	lr
 8000984:	40012c00 	.word	0x40012c00

08000988 <encoderTimerCallback>:
 8000988:	4b02      	ldr	r3, [pc, #8]	; (8000994 <encoderTimerCallback+0xc>)
 800098a:	2101      	movs	r1, #1
 800098c:	6818      	ldr	r0, [r3, #0]
 800098e:	f001 be1d 	b.w	80025cc <osThreadFlagsSet>
 8000992:	bf00      	nop
 8000994:	200019d4 	.word	0x200019d4

08000998 <StartDefaultTask>:
 8000998:	b508      	push	{r3, lr}
 800099a:	2001      	movs	r0, #1
 800099c:	f001 feba 	bl	8002714 <osDelay>
 80009a0:	e7fb      	b.n	800099a <StartDefaultTask+0x2>

080009a2 <updateEventFlagsTask>:
 80009a2:	b508      	push	{r3, lr}
 80009a4:	f04f 32ff 	mov.w	r2, #4294967295
 80009a8:	2100      	movs	r1, #0
 80009aa:	2001      	movs	r0, #1
 80009ac:	f001 fe5a 	bl	8002664 <osThreadFlagsWait>
 80009b0:	e7f8      	b.n	80009a4 <updateEventFlagsTask+0x2>
	...

080009b4 <readEncoderTask>:
 80009b4:	b537      	push	{r0, r1, r2, r4, r5, lr}
 80009b6:	f7ff ff85 	bl	80008c4 <EncoderInit>
 80009ba:	2400      	movs	r4, #0
 80009bc:	4d0c      	ldr	r5, [pc, #48]	; (80009f0 <readEncoderTask+0x3c>)
 80009be:	f04f 32ff 	mov.w	r2, #4294967295
 80009c2:	2100      	movs	r1, #0
 80009c4:	2001      	movs	r0, #1
 80009c6:	f001 fe4d 	bl	8002664 <osThreadFlagsWait>
 80009ca:	f7ff ffc7 	bl	800095c <EncoderRead>
 80009ce:	42a0      	cmp	r0, r4
 80009d0:	f8ad 0006 	strh.w	r0, [sp, #6]
 80009d4:	d006      	beq.n	80009e4 <readEncoderTask+0x30>
 80009d6:	2300      	movs	r3, #0
 80009d8:	f10d 0106 	add.w	r1, sp, #6
 80009dc:	461a      	mov	r2, r3
 80009de:	6828      	ldr	r0, [r5, #0]
 80009e0:	f001 ff3c 	bl	800285c <osMessageQueuePut>
 80009e4:	f8bd 4006 	ldrh.w	r4, [sp, #6]
 80009e8:	f001 fdd0 	bl	800258c <osThreadYield>
 80009ec:	e7e7      	b.n	80009be <readEncoderTask+0xa>
 80009ee:	bf00      	nop
 80009f0:	200019e0 	.word	0x200019e0

080009f4 <sendMotorCommandTask>:
 80009f4:	b5f0      	push	{r4, r5, r6, r7, lr}
 80009f6:	4a16      	ldr	r2, [pc, #88]	; (8000a50 <sendMotorCommandTask+0x5c>)
 80009f8:	4c16      	ldr	r4, [pc, #88]	; (8000a54 <sendMotorCommandTask+0x60>)
 80009fa:	4e17      	ldr	r6, [pc, #92]	; (8000a58 <sendMotorCommandTask+0x64>)
 80009fc:	4d17      	ldr	r5, [pc, #92]	; (8000a5c <sendMotorCommandTask+0x68>)
 80009fe:	4f18      	ldr	r7, [pc, #96]	; (8000a60 <sendMotorCommandTask+0x6c>)
 8000a00:	b085      	sub	sp, #20
 8000a02:	6022      	str	r2, [r4, #0]
 8000a04:	2300      	movs	r3, #0
 8000a06:	f10d 0106 	add.w	r1, sp, #6
 8000a0a:	461a      	mov	r2, r3
 8000a0c:	6830      	ldr	r0, [r6, #0]
 8000a0e:	f001 ff69 	bl	80028e4 <osMessageQueueGet>
 8000a12:	b9c8      	cbnz	r0, 8000a48 <sendMotorCommandTask+0x54>
 8000a14:	f8bd 0006 	ldrh.w	r0, [sp, #6]
 8000a18:	f7ff fcc0 	bl	800039c <__aeabi_ui2f>
 8000a1c:	4639      	mov	r1, r7
 8000a1e:	f7ff fdc9 	bl	80005b4 <__aeabi_fdiv>
 8000a22:	6028      	str	r0, [r5, #0]
 8000a24:	2300      	movs	r3, #0
 8000a26:	aa02      	add	r2, sp, #8
 8000a28:	5ce1      	ldrb	r1, [r4, r3]
 8000a2a:	5ce8      	ldrb	r0, [r5, r3]
 8000a2c:	5499      	strb	r1, [r3, r2]
 8000a2e:	18d1      	adds	r1, r2, r3
 8000a30:	3301      	adds	r3, #1
 8000a32:	2b04      	cmp	r3, #4
 8000a34:	7108      	strb	r0, [r1, #4]
 8000a36:	d1f7      	bne.n	8000a28 <sendMotorCommandTask+0x34>
 8000a38:	4b0a      	ldr	r3, [pc, #40]	; (8000a64 <sendMotorCommandTask+0x70>)
 8000a3a:	490b      	ldr	r1, [pc, #44]	; (8000a68 <sendMotorCommandTask+0x74>)
 8000a3c:	480b      	ldr	r0, [pc, #44]	; (8000a6c <sendMotorCommandTask+0x78>)
 8000a3e:	f000 fd31 	bl	80014a4 <HAL_CAN_AddTxMessage>
 8000a42:	f001 fda3 	bl	800258c <osThreadYield>
 8000a46:	e7dd      	b.n	8000a04 <sendMotorCommandTask+0x10>
 8000a48:	f001 fda0 	bl	800258c <osThreadYield>
 8000a4c:	e7ea      	b.n	8000a24 <sendMotorCommandTask+0x30>
 8000a4e:	bf00      	nop
 8000a50:	42c80000 	.word	0x42c80000
 8000a54:	200019f0 	.word	0x200019f0
 8000a58:	200019e0 	.word	0x200019e0
 8000a5c:	200019ec 	.word	0x200019ec
 8000a60:	43410000 	.word	0x43410000
 8000a64:	200019f4 	.word	0x200019f4
 8000a68:	200019fc 	.word	0x200019fc
 8000a6c:	200019a4 	.word	0x200019a4

08000a70 <MX_FREERTOS_Init>:
 8000a70:	b508      	push	{r3, lr}
 8000a72:	2200      	movs	r2, #0
 8000a74:	4b15      	ldr	r3, [pc, #84]	; (8000acc <MX_FREERTOS_Init+0x5c>)
 8000a76:	2101      	movs	r1, #1
 8000a78:	4815      	ldr	r0, [pc, #84]	; (8000ad0 <MX_FREERTOS_Init+0x60>)
 8000a7a:	f001 fe67 	bl	800274c <osTimerNew>
 8000a7e:	4b15      	ldr	r3, [pc, #84]	; (8000ad4 <MX_FREERTOS_Init+0x64>)
 8000a80:	4a15      	ldr	r2, [pc, #84]	; (8000ad8 <MX_FREERTOS_Init+0x68>)
 8000a82:	6018      	str	r0, [r3, #0]
 8000a84:	2102      	movs	r1, #2
 8000a86:	2005      	movs	r0, #5
 8000a88:	f001 fea0 	bl	80027cc <osMessageQueueNew>
 8000a8c:	4b13      	ldr	r3, [pc, #76]	; (8000adc <MX_FREERTOS_Init+0x6c>)
 8000a8e:	4a14      	ldr	r2, [pc, #80]	; (8000ae0 <MX_FREERTOS_Init+0x70>)
 8000a90:	6018      	str	r0, [r3, #0]
 8000a92:	2100      	movs	r1, #0
 8000a94:	4813      	ldr	r0, [pc, #76]	; (8000ae4 <MX_FREERTOS_Init+0x74>)
 8000a96:	f001 fd1d 	bl	80024d4 <osThreadNew>
 8000a9a:	4b13      	ldr	r3, [pc, #76]	; (8000ae8 <MX_FREERTOS_Init+0x78>)
 8000a9c:	4a13      	ldr	r2, [pc, #76]	; (8000aec <MX_FREERTOS_Init+0x7c>)
 8000a9e:	6018      	str	r0, [r3, #0]
 8000aa0:	2100      	movs	r1, #0
 8000aa2:	4813      	ldr	r0, [pc, #76]	; (8000af0 <MX_FREERTOS_Init+0x80>)
 8000aa4:	f001 fd16 	bl	80024d4 <osThreadNew>
 8000aa8:	4b12      	ldr	r3, [pc, #72]	; (8000af4 <MX_FREERTOS_Init+0x84>)
 8000aaa:	4a13      	ldr	r2, [pc, #76]	; (8000af8 <MX_FREERTOS_Init+0x88>)
 8000aac:	6018      	str	r0, [r3, #0]
 8000aae:	2100      	movs	r1, #0
 8000ab0:	4812      	ldr	r0, [pc, #72]	; (8000afc <MX_FREERTOS_Init+0x8c>)
 8000ab2:	f001 fd0f 	bl	80024d4 <osThreadNew>
 8000ab6:	4b12      	ldr	r3, [pc, #72]	; (8000b00 <MX_FREERTOS_Init+0x90>)
 8000ab8:	4a12      	ldr	r2, [pc, #72]	; (8000b04 <MX_FREERTOS_Init+0x94>)
 8000aba:	6018      	str	r0, [r3, #0]
 8000abc:	2100      	movs	r1, #0
 8000abe:	4812      	ldr	r0, [pc, #72]	; (8000b08 <MX_FREERTOS_Init+0x98>)
 8000ac0:	f001 fd08 	bl	80024d4 <osThreadNew>
 8000ac4:	4b11      	ldr	r3, [pc, #68]	; (8000b0c <MX_FREERTOS_Init+0x9c>)
 8000ac6:	6018      	str	r0, [r3, #0]
 8000ac8:	bd08      	pop	{r3, pc}
 8000aca:	bf00      	nop
 8000acc:	08004674 	.word	0x08004674
 8000ad0:	08000989 	.word	0x08000989
 8000ad4:	200019d0 	.word	0x200019d0
 8000ad8:	0800465c 	.word	0x0800465c
 8000adc:	200019e0 	.word	0x200019e0
 8000ae0:	08004748 	.word	0x08004748
 8000ae4:	08000999 	.word	0x08000999
 8000ae8:	200019cc 	.word	0x200019cc
 8000aec:	08004684 	.word	0x08004684
 8000af0:	080009b5 	.word	0x080009b5
 8000af4:	200019d4 	.word	0x200019d4
 8000af8:	080046a8 	.word	0x080046a8
 8000afc:	080009f5 	.word	0x080009f5
 8000b00:	200019d8 	.word	0x200019d8
 8000b04:	08004724 	.word	0x08004724
 8000b08:	080009a3 	.word	0x080009a3
 8000b0c:	200019dc 	.word	0x200019dc

08000b10 <MX_GPIO_Init>:
 8000b10:	2210      	movs	r2, #16
 8000b12:	b570      	push	{r4, r5, r6, lr}
 8000b14:	b088      	sub	sp, #32
 8000b16:	eb0d 0002 	add.w	r0, sp, r2
 8000b1a:	2100      	movs	r1, #0
 8000b1c:	f003 fd81 	bl	8004622 <memset>
 8000b20:	4b35      	ldr	r3, [pc, #212]	; (8000bf8 <MX_GPIO_Init+0xe8>)
 8000b22:	4d36      	ldr	r5, [pc, #216]	; (8000bfc <MX_GPIO_Init+0xec>)
 8000b24:	699a      	ldr	r2, [r3, #24]
 8000b26:	4628      	mov	r0, r5
 8000b28:	f042 0220 	orr.w	r2, r2, #32
 8000b2c:	619a      	str	r2, [r3, #24]
 8000b2e:	699a      	ldr	r2, [r3, #24]
 8000b30:	f44f 6180 	mov.w	r1, #1024	; 0x400
 8000b34:	f002 0220 	and.w	r2, r2, #32
 8000b38:	9201      	str	r2, [sp, #4]
 8000b3a:	9a01      	ldr	r2, [sp, #4]
 8000b3c:	699a      	ldr	r2, [r3, #24]
 8000b3e:	2601      	movs	r6, #1
 8000b40:	f042 0204 	orr.w	r2, r2, #4
 8000b44:	619a      	str	r2, [r3, #24]
 8000b46:	699a      	ldr	r2, [r3, #24]
 8000b48:	2400      	movs	r4, #0
 8000b4a:	f002 0204 	and.w	r2, r2, #4
 8000b4e:	9202      	str	r2, [sp, #8]
 8000b50:	9a02      	ldr	r2, [sp, #8]
 8000b52:	699a      	ldr	r2, [r3, #24]
 8000b54:	f042 0208 	orr.w	r2, r2, #8
 8000b58:	619a      	str	r2, [r3, #24]
 8000b5a:	699b      	ldr	r3, [r3, #24]
 8000b5c:	2200      	movs	r2, #0
 8000b5e:	f003 0308 	and.w	r3, r3, #8
 8000b62:	9303      	str	r3, [sp, #12]
 8000b64:	9b03      	ldr	r3, [sp, #12]
 8000b66:	f000 ffef 	bl	8001b48 <HAL_GPIO_WritePin>
 8000b6a:	2303      	movs	r3, #3
 8000b6c:	a904      	add	r1, sp, #16
 8000b6e:	4628      	mov	r0, r5
 8000b70:	e9cd 6304 	strd	r6, r3, [sp, #16]
 8000b74:	f000 fef6 	bl	8001964 <HAL_GPIO_Init>
 8000b78:	220e      	movs	r2, #14
 8000b7a:	4b21      	ldr	r3, [pc, #132]	; (8000c00 <MX_GPIO_Init+0xf0>)
 8000b7c:	a904      	add	r1, sp, #16
 8000b7e:	4628      	mov	r0, r5
 8000b80:	e9cd 2304 	strd	r2, r3, [sp, #16]
 8000b84:	9406      	str	r4, [sp, #24]
 8000b86:	f000 feed 	bl	8001964 <HAL_GPIO_Init>
 8000b8a:	f24e 33f0 	movw	r3, #58352	; 0xe3f0
 8000b8e:	a904      	add	r1, sp, #16
 8000b90:	4628      	mov	r0, r5
 8000b92:	e9cd 3404 	strd	r3, r4, [sp, #16]
 8000b96:	9406      	str	r4, [sp, #24]
 8000b98:	f000 fee4 	bl	8001964 <HAL_GPIO_Init>
 8000b9c:	f44f 6380 	mov.w	r3, #1024	; 0x400
 8000ba0:	e9cd 3604 	strd	r3, r6, [sp, #16]
 8000ba4:	2302      	movs	r3, #2
 8000ba6:	4628      	mov	r0, r5
 8000ba8:	2508      	movs	r5, #8
 8000baa:	a904      	add	r1, sp, #16
 8000bac:	9307      	str	r3, [sp, #28]
 8000bae:	9406      	str	r4, [sp, #24]
 8000bb0:	f000 fed8 	bl	8001964 <HAL_GPIO_Init>
 8000bb4:	a904      	add	r1, sp, #16
 8000bb6:	4813      	ldr	r0, [pc, #76]	; (8000c04 <MX_GPIO_Init+0xf4>)
 8000bb8:	e9cd 5404 	strd	r5, r4, [sp, #16]
 8000bbc:	9406      	str	r4, [sp, #24]
 8000bbe:	f000 fed1 	bl	8001964 <HAL_GPIO_Init>
 8000bc2:	4622      	mov	r2, r4
 8000bc4:	2105      	movs	r1, #5
 8000bc6:	2007      	movs	r0, #7
 8000bc8:	f000 fccc 	bl	8001564 <HAL_NVIC_SetPriority>
 8000bcc:	2007      	movs	r0, #7
 8000bce:	f000 fcfd 	bl	80015cc <HAL_NVIC_EnableIRQ>
 8000bd2:	4622      	mov	r2, r4
 8000bd4:	2105      	movs	r1, #5
 8000bd6:	4628      	mov	r0, r5
 8000bd8:	f000 fcc4 	bl	8001564 <HAL_NVIC_SetPriority>
 8000bdc:	4628      	mov	r0, r5
 8000bde:	f000 fcf5 	bl	80015cc <HAL_NVIC_EnableIRQ>
 8000be2:	4622      	mov	r2, r4
 8000be4:	2105      	movs	r1, #5
 8000be6:	2009      	movs	r0, #9
 8000be8:	f000 fcbc 	bl	8001564 <HAL_NVIC_SetPriority>
 8000bec:	2009      	movs	r0, #9
 8000bee:	f000 fced 	bl	80015cc <HAL_NVIC_EnableIRQ>
 8000bf2:	b008      	add	sp, #32
 8000bf4:	bd70      	pop	{r4, r5, r6, pc}
 8000bf6:	bf00      	nop
 8000bf8:	40021000 	.word	0x40021000
 8000bfc:	40010800 	.word	0x40010800
 8000c00:	10310000 	.word	0x10310000
 8000c04:	40010c00 	.word	0x40010c00

08000c08 <SystemClock_Config>:
 8000c08:	b510      	push	{r4, lr}
 8000c0a:	2414      	movs	r4, #20
 8000c0c:	b096      	sub	sp, #88	; 0x58
 8000c0e:	4622      	mov	r2, r4
 8000c10:	2100      	movs	r1, #0
 8000c12:	a80e      	add	r0, sp, #56	; 0x38
 8000c14:	f003 fd05 	bl	8004622 <memset>
 8000c18:	4622      	mov	r2, r4
 8000c1a:	2100      	movs	r1, #0
 8000c1c:	a801      	add	r0, sp, #4
 8000c1e:	f003 fd00 	bl	8004622 <memset>
 8000c22:	2218      	movs	r2, #24
 8000c24:	2100      	movs	r1, #0
 8000c26:	eb0d 0002 	add.w	r0, sp, r2
 8000c2a:	f003 fcfa 	bl	8004622 <memset>
 8000c2e:	2402      	movs	r4, #2
 8000c30:	2201      	movs	r2, #1
 8000c32:	f44f 3380 	mov.w	r3, #65536	; 0x10000
 8000c36:	e9cd 230c 	strd	r2, r3, [sp, #48]	; 0x30
 8000c3a:	e9cd 4313 	strd	r4, r3, [sp, #76]	; 0x4c
 8000c3e:	f44f 13e0 	mov.w	r3, #1835008	; 0x1c0000
 8000c42:	a80c      	add	r0, sp, #48	; 0x30
 8000c44:	9210      	str	r2, [sp, #64]	; 0x40
 8000c46:	9315      	str	r3, [sp, #84]	; 0x54
 8000c48:	f000 ff90 	bl	8001b6c <HAL_RCC_OscConfig>
 8000c4c:	230f      	movs	r3, #15
 8000c4e:	f44f 6280 	mov.w	r2, #1024	; 0x400
 8000c52:	e9cd 3401 	strd	r3, r4, [sp, #4]
 8000c56:	2300      	movs	r3, #0
 8000c58:	4621      	mov	r1, r4
 8000c5a:	a801      	add	r0, sp, #4
 8000c5c:	e9cd 3203 	strd	r3, r2, [sp, #12]
 8000c60:	9305      	str	r3, [sp, #20]
 8000c62:	f001 f95b 	bl	8001f1c <HAL_RCC_ClockConfig>
 8000c66:	f44f 4300 	mov.w	r3, #32768	; 0x8000
 8000c6a:	a806      	add	r0, sp, #24
 8000c6c:	9406      	str	r4, [sp, #24]
 8000c6e:	9308      	str	r3, [sp, #32]
 8000c70:	f001 fa1e 	bl	80020b0 <HAL_RCCEx_PeriphCLKConfig>
 8000c74:	b016      	add	sp, #88	; 0x58
 8000c76:	bd10      	pop	{r4, pc}

08000c78 <main>:
 8000c78:	b508      	push	{r3, lr}
 8000c7a:	2003      	movs	r0, #3
 8000c7c:	f000 fc60 	bl	8001540 <HAL_NVIC_SetPriorityGrouping>
 8000c80:	f000 f91a 	bl	8000eb8 <HAL_Init>
 8000c84:	f7ff ffc0 	bl	8000c08 <SystemClock_Config>
 8000c88:	f7ff ff42 	bl	8000b10 <MX_GPIO_Init>
 8000c8c:	f7ff fe02 	bl	8000894 <MX_DMA_Init>
 8000c90:	f7ff fd9e 	bl	80007d0 <MX_CAN_Init>
 8000c94:	f7ff fd2a 	bl	80006ec <MX_ADC1_Init>
 8000c98:	480a      	ldr	r0, [pc, #40]	; (8000cc4 <main+0x4c>)
 8000c9a:	f000 fbd8 	bl	800144e <HAL_CAN_Start>
 8000c9e:	f240 4201 	movw	r2, #1025	; 0x401
 8000ca2:	4b09      	ldr	r3, [pc, #36]	; (8000cc8 <main+0x50>)
 8000ca4:	4909      	ldr	r1, [pc, #36]	; (8000ccc <main+0x54>)
 8000ca6:	601a      	str	r2, [r3, #0]
 8000ca8:	2200      	movs	r2, #0
 8000caa:	4809      	ldr	r0, [pc, #36]	; (8000cd0 <main+0x58>)
 8000cac:	609a      	str	r2, [r3, #8]
 8000cae:	2201      	movs	r2, #1
 8000cb0:	f000 fa18 	bl	80010e4 <HAL_ADC_Start_DMA>
 8000cb4:	f001 fbd2 	bl	800245c <osKernelInitialize>
 8000cb8:	f7ff feda 	bl	8000a70 <MX_FREERTOS_Init>
 8000cbc:	f001 fbea 	bl	8002494 <osKernelStart>
 8000cc0:	e7fe      	b.n	8000cc0 <main+0x48>
 8000cc2:	bf00      	nop
 8000cc4:	200019a4 	.word	0x200019a4
 8000cc8:	200019fc 	.word	0x200019fc
 8000ccc:	200019f8 	.word	0x200019f8
 8000cd0:	20001930 	.word	0x20001930

08000cd4 <HAL_TIM_PeriodElapsedCallback>:
 8000cd4:	6802      	ldr	r2, [r0, #0]
 8000cd6:	4b03      	ldr	r3, [pc, #12]	; (8000ce4 <HAL_TIM_PeriodElapsedCallback+0x10>)
 8000cd8:	429a      	cmp	r2, r3
 8000cda:	d101      	bne.n	8000ce0 <HAL_TIM_PeriodElapsedCallback+0xc>
 8000cdc:	f000 b8fe 	b.w	8000edc <HAL_IncTick>
 8000ce0:	4770      	bx	lr
 8000ce2:	bf00      	nop
 8000ce4:	40013400 	.word	0x40013400

08000ce8 <Error_Handler>:
 8000ce8:	4770      	bx	lr
	...

08000cec <HAL_MspInit>:
 8000cec:	4b11      	ldr	r3, [pc, #68]	; (8000d34 <HAL_MspInit+0x48>)
 8000cee:	b507      	push	{r0, r1, r2, lr}
 8000cf0:	699a      	ldr	r2, [r3, #24]
 8000cf2:	210f      	movs	r1, #15
 8000cf4:	f042 0201 	orr.w	r2, r2, #1
 8000cf8:	619a      	str	r2, [r3, #24]
 8000cfa:	699a      	ldr	r2, [r3, #24]
 8000cfc:	f06f 0001 	mvn.w	r0, #1
 8000d00:	f002 0201 	and.w	r2, r2, #1
 8000d04:	9200      	str	r2, [sp, #0]
 8000d06:	9a00      	ldr	r2, [sp, #0]
 8000d08:	69da      	ldr	r2, [r3, #28]
 8000d0a:	f042 5280 	orr.w	r2, r2, #268435456	; 0x10000000
 8000d0e:	61da      	str	r2, [r3, #28]
 8000d10:	69db      	ldr	r3, [r3, #28]
 8000d12:	2200      	movs	r2, #0
 8000d14:	f003 5380 	and.w	r3, r3, #268435456	; 0x10000000
 8000d18:	9301      	str	r3, [sp, #4]
 8000d1a:	9b01      	ldr	r3, [sp, #4]
 8000d1c:	f000 fc22 	bl	8001564 <HAL_NVIC_SetPriority>
 8000d20:	4a05      	ldr	r2, [pc, #20]	; (8000d38 <HAL_MspInit+0x4c>)
 8000d22:	6853      	ldr	r3, [r2, #4]
 8000d24:	f023 63e0 	bic.w	r3, r3, #117440512	; 0x7000000
 8000d28:	f043 6380 	orr.w	r3, r3, #67108864	; 0x4000000
 8000d2c:	6053      	str	r3, [r2, #4]
 8000d2e:	b003      	add	sp, #12
 8000d30:	f85d fb04 	ldr.w	pc, [sp], #4
 8000d34:	40021000 	.word	0x40021000
 8000d38:	40010000 	.word	0x40010000

08000d3c <HAL_InitTick>:
 8000d3c:	b510      	push	{r4, lr}
 8000d3e:	4601      	mov	r1, r0
 8000d40:	b088      	sub	sp, #32
 8000d42:	2200      	movs	r2, #0
 8000d44:	202c      	movs	r0, #44	; 0x2c
 8000d46:	f000 fc0d 	bl	8001564 <HAL_NVIC_SetPriority>
 8000d4a:	202c      	movs	r0, #44	; 0x2c
 8000d4c:	f000 fc3e 	bl	80015cc <HAL_NVIC_EnableIRQ>
 8000d50:	4b14      	ldr	r3, [pc, #80]	; (8000da4 <HAL_InitTick+0x68>)
 8000d52:	a901      	add	r1, sp, #4
 8000d54:	699a      	ldr	r2, [r3, #24]
 8000d56:	a803      	add	r0, sp, #12
 8000d58:	f442 5200 	orr.w	r2, r2, #8192	; 0x2000
 8000d5c:	619a      	str	r2, [r3, #24]
 8000d5e:	699b      	ldr	r3, [r3, #24]
 8000d60:	4c11      	ldr	r4, [pc, #68]	; (8000da8 <HAL_InitTick+0x6c>)
 8000d62:	f403 5300 	and.w	r3, r3, #8192	; 0x2000
 8000d66:	9302      	str	r3, [sp, #8]
 8000d68:	9b02      	ldr	r3, [sp, #8]
 8000d6a:	f001 f983 	bl	8002074 <HAL_RCC_GetClockConfig>
 8000d6e:	f001 f971 	bl	8002054 <HAL_RCC_GetPCLK2Freq>
 8000d72:	4b0e      	ldr	r3, [pc, #56]	; (8000dac <HAL_InitTick+0x70>)
 8000d74:	6023      	str	r3, [r4, #0]
 8000d76:	f240 33e7 	movw	r3, #999	; 0x3e7
 8000d7a:	60e3      	str	r3, [r4, #12]
 8000d7c:	4b0c      	ldr	r3, [pc, #48]	; (8000db0 <HAL_InitTick+0x74>)
 8000d7e:	fbb0 f0f3 	udiv	r0, r0, r3
 8000d82:	2300      	movs	r3, #0
 8000d84:	3801      	subs	r0, #1
 8000d86:	6060      	str	r0, [r4, #4]
 8000d88:	4620      	mov	r0, r4
 8000d8a:	6123      	str	r3, [r4, #16]
 8000d8c:	60a3      	str	r3, [r4, #8]
 8000d8e:	f001 fb2d 	bl	80023ec <HAL_TIM_Base_Init>
 8000d92:	b920      	cbnz	r0, 8000d9e <HAL_InitTick+0x62>
 8000d94:	4620      	mov	r0, r4
 8000d96:	f001 fa05 	bl	80021a4 <HAL_TIM_Base_Start_IT>
 8000d9a:	b008      	add	sp, #32
 8000d9c:	bd10      	pop	{r4, pc}
 8000d9e:	2001      	movs	r0, #1
 8000da0:	e7fb      	b.n	8000d9a <HAL_InitTick+0x5e>
 8000da2:	bf00      	nop
 8000da4:	40021000 	.word	0x40021000
 8000da8:	20001a14 	.word	0x20001a14
 8000dac:	40013400 	.word	0x40013400
 8000db0:	000f4240 	.word	0x000f4240

08000db4 <NMI_Handler>:
 8000db4:	4770      	bx	lr

08000db6 <HardFault_Handler>:
 8000db6:	e7fe      	b.n	8000db6 <HardFault_Handler>

08000db8 <MemManage_Handler>:
 8000db8:	e7fe      	b.n	8000db8 <MemManage_Handler>

08000dba <BusFault_Handler>:
 8000dba:	e7fe      	b.n	8000dba <BusFault_Handler>

08000dbc <UsageFault_Handler>:
 8000dbc:	e7fe      	b.n	8000dbc <UsageFault_Handler>

08000dbe <DebugMon_Handler>:
 8000dbe:	4770      	bx	lr

08000dc0 <EXTI1_IRQHandler>:
 8000dc0:	b508      	push	{r3, lr}
 8000dc2:	2102      	movs	r1, #2
 8000dc4:	4807      	ldr	r0, [pc, #28]	; (8000de4 <EXTI1_IRQHandler+0x24>)
 8000dc6:	f000 feb9 	bl	8001b3c <HAL_GPIO_ReadPin>
 8000dca:	4b07      	ldr	r3, [pc, #28]	; (8000de8 <EXTI1_IRQHandler+0x28>)
 8000dcc:	7018      	strb	r0, [r3, #0]
 8000dce:	2002      	movs	r0, #2
 8000dd0:	f000 fec0 	bl	8001b54 <HAL_GPIO_EXTI_IRQHandler>
 8000dd4:	4b05      	ldr	r3, [pc, #20]	; (8000dec <EXTI1_IRQHandler+0x2c>)
 8000dd6:	2101      	movs	r1, #1
 8000dd8:	6818      	ldr	r0, [r3, #0]
 8000dda:	e8bd 4008 	ldmia.w	sp!, {r3, lr}
 8000dde:	f001 bbf5 	b.w	80025cc <osThreadFlagsSet>
 8000de2:	bf00      	nop
 8000de4:	40010800 	.word	0x40010800
 8000de8:	200019e8 	.word	0x200019e8
 8000dec:	200019dc 	.word	0x200019dc

08000df0 <EXTI2_IRQHandler>:
 8000df0:	b508      	push	{r3, lr}
 8000df2:	2104      	movs	r1, #4
 8000df4:	4807      	ldr	r0, [pc, #28]	; (8000e14 <EXTI2_IRQHandler+0x24>)
 8000df6:	f000 fea1 	bl	8001b3c <HAL_GPIO_ReadPin>
 8000dfa:	4b07      	ldr	r3, [pc, #28]	; (8000e18 <EXTI2_IRQHandler+0x28>)
 8000dfc:	7098      	strb	r0, [r3, #2]
 8000dfe:	2004      	movs	r0, #4
 8000e00:	f000 fea8 	bl	8001b54 <HAL_GPIO_EXTI_IRQHandler>
 8000e04:	4b05      	ldr	r3, [pc, #20]	; (8000e1c <EXTI2_IRQHandler+0x2c>)
 8000e06:	2101      	movs	r1, #1
 8000e08:	6818      	ldr	r0, [r3, #0]
 8000e0a:	e8bd 4008 	ldmia.w	sp!, {r3, lr}
 8000e0e:	f001 bbdd 	b.w	80025cc <osThreadFlagsSet>
 8000e12:	bf00      	nop
 8000e14:	40010800 	.word	0x40010800
 8000e18:	200019e8 	.word	0x200019e8
 8000e1c:	200019dc 	.word	0x200019dc

08000e20 <EXTI3_IRQHandler>:
 8000e20:	b508      	push	{r3, lr}
 8000e22:	2108      	movs	r1, #8
 8000e24:	4807      	ldr	r0, [pc, #28]	; (8000e44 <EXTI3_IRQHandler+0x24>)
 8000e26:	f000 fe89 	bl	8001b3c <HAL_GPIO_ReadPin>
 8000e2a:	4b07      	ldr	r3, [pc, #28]	; (8000e48 <EXTI3_IRQHandler+0x28>)
 8000e2c:	7058      	strb	r0, [r3, #1]
 8000e2e:	2008      	movs	r0, #8
 8000e30:	f000 fe90 	bl	8001b54 <HAL_GPIO_EXTI_IRQHandler>
 8000e34:	4b05      	ldr	r3, [pc, #20]	; (8000e4c <EXTI3_IRQHandler+0x2c>)
 8000e36:	2101      	movs	r1, #1
 8000e38:	6818      	ldr	r0, [r3, #0]
 8000e3a:	e8bd 4008 	ldmia.w	sp!, {r3, lr}
 8000e3e:	f001 bbc5 	b.w	80025cc <osThreadFlagsSet>
 8000e42:	bf00      	nop
 8000e44:	40010800 	.word	0x40010800
 8000e48:	200019e8 	.word	0x200019e8
 8000e4c:	200019dc 	.word	0x200019dc

08000e50 <DMA1_Channel1_IRQHandler>:
 8000e50:	4801      	ldr	r0, [pc, #4]	; (8000e58 <DMA1_Channel1_IRQHandler+0x8>)
 8000e52:	f000 bc47 	b.w	80016e4 <HAL_DMA_IRQHandler>
 8000e56:	bf00      	nop
 8000e58:	20001960 	.word	0x20001960

08000e5c <TIM8_UP_IRQHandler>:
 8000e5c:	4801      	ldr	r0, [pc, #4]	; (8000e64 <TIM8_UP_IRQHandler+0x8>)
 8000e5e:	f001 b9d7 	b.w	8002210 <HAL_TIM_IRQHandler>
 8000e62:	bf00      	nop
 8000e64:	20001a14 	.word	0x20001a14

08000e68 <SystemInit>:
 8000e68:	4770      	bx	lr
	...

08000e6c <Reset_Handler>:
 8000e6c:	2100      	movs	r1, #0
 8000e6e:	e003      	b.n	8000e78 <LoopCopyDataInit>

08000e70 <CopyDataInit>:
 8000e70:	4b0b      	ldr	r3, [pc, #44]	; (8000ea0 <LoopFillZerobss+0x14>)
 8000e72:	585b      	ldr	r3, [r3, r1]
 8000e74:	5043      	str	r3, [r0, r1]
 8000e76:	3104      	adds	r1, #4

08000e78 <LoopCopyDataInit>:
 8000e78:	480a      	ldr	r0, [pc, #40]	; (8000ea4 <LoopFillZerobss+0x18>)
 8000e7a:	4b0b      	ldr	r3, [pc, #44]	; (8000ea8 <LoopFillZerobss+0x1c>)
 8000e7c:	1842      	adds	r2, r0, r1
 8000e7e:	429a      	cmp	r2, r3
 8000e80:	d3f6      	bcc.n	8000e70 <CopyDataInit>
 8000e82:	4a0a      	ldr	r2, [pc, #40]	; (8000eac <LoopFillZerobss+0x20>)
 8000e84:	e002      	b.n	8000e8c <LoopFillZerobss>

08000e86 <FillZerobss>:
 8000e86:	2300      	movs	r3, #0
 8000e88:	f842 3b04 	str.w	r3, [r2], #4

08000e8c <LoopFillZerobss>:
 8000e8c:	4b08      	ldr	r3, [pc, #32]	; (8000eb0 <LoopFillZerobss+0x24>)
 8000e8e:	429a      	cmp	r2, r3
 8000e90:	d3f9      	bcc.n	8000e86 <FillZerobss>
 8000e92:	f7ff ffe9 	bl	8000e68 <SystemInit>
 8000e96:	f003 fb95 	bl	80045c4 <__libc_init_array>
 8000e9a:	f7ff feed 	bl	8000c78 <main>
 8000e9e:	4770      	bx	lr
 8000ea0:	080047ac 	.word	0x080047ac
 8000ea4:	20000000 	.word	0x20000000
 8000ea8:	20000010 	.word	0x20000010
 8000eac:	20000010 	.word	0x20000010
 8000eb0:	20001aa0 	.word	0x20001aa0

08000eb4 <ADC1_2_IRQHandler>:
 8000eb4:	e7fe      	b.n	8000eb4 <ADC1_2_IRQHandler>
	...

08000eb8 <HAL_Init>:
 8000eb8:	4a07      	ldr	r2, [pc, #28]	; (8000ed8 <HAL_Init+0x20>)
 8000eba:	b508      	push	{r3, lr}
 8000ebc:	6813      	ldr	r3, [r2, #0]
 8000ebe:	2003      	movs	r0, #3
 8000ec0:	f043 0310 	orr.w	r3, r3, #16
 8000ec4:	6013      	str	r3, [r2, #0]
 8000ec6:	f000 fb3b 	bl	8001540 <HAL_NVIC_SetPriorityGrouping>
 8000eca:	2000      	movs	r0, #0
 8000ecc:	f7ff ff36 	bl	8000d3c <HAL_InitTick>
 8000ed0:	f7ff ff0c 	bl	8000cec <HAL_MspInit>
 8000ed4:	2000      	movs	r0, #0
 8000ed6:	bd08      	pop	{r3, pc}
 8000ed8:	40022000 	.word	0x40022000

08000edc <HAL_IncTick>:
 8000edc:	4a03      	ldr	r2, [pc, #12]	; (8000eec <HAL_IncTick+0x10>)
 8000ede:	4b04      	ldr	r3, [pc, #16]	; (8000ef0 <HAL_IncTick+0x14>)
 8000ee0:	6811      	ldr	r1, [r2, #0]
 8000ee2:	781b      	ldrb	r3, [r3, #0]
 8000ee4:	440b      	add	r3, r1
 8000ee6:	6013      	str	r3, [r2, #0]
 8000ee8:	4770      	bx	lr
 8000eea:	bf00      	nop
 8000eec:	20001a5c 	.word	0x20001a5c
 8000ef0:	20000004 	.word	0x20000004

08000ef4 <HAL_GetTick>:
 8000ef4:	4b01      	ldr	r3, [pc, #4]	; (8000efc <HAL_GetTick+0x8>)
 8000ef6:	6818      	ldr	r0, [r3, #0]
 8000ef8:	4770      	bx	lr
 8000efa:	bf00      	nop
 8000efc:	20001a5c 	.word	0x20001a5c

08000f00 <HAL_ADC_ConvCpltCallback>:
 8000f00:	4770      	bx	lr

08000f02 <ADC_DMAConvCplt>:
 8000f02:	6a43      	ldr	r3, [r0, #36]	; 0x24
 8000f04:	b510      	push	{r4, lr}
 8000f06:	6a9a      	ldr	r2, [r3, #40]	; 0x28
 8000f08:	f012 0f50 	tst.w	r2, #80	; 0x50
 8000f0c:	d11b      	bne.n	8000f46 <ADC_DMAConvCplt+0x44>
 8000f0e:	6a9a      	ldr	r2, [r3, #40]	; 0x28
 8000f10:	f442 7200 	orr.w	r2, r2, #512	; 0x200
 8000f14:	629a      	str	r2, [r3, #40]	; 0x28
 8000f16:	681a      	ldr	r2, [r3, #0]
 8000f18:	6892      	ldr	r2, [r2, #8]
 8000f1a:	f402 2260 	and.w	r2, r2, #917504	; 0xe0000
 8000f1e:	f5b2 2f60 	cmp.w	r2, #917504	; 0xe0000
 8000f22:	d10c      	bne.n	8000f3e <ADC_DMAConvCplt+0x3c>
 8000f24:	7b1a      	ldrb	r2, [r3, #12]
 8000f26:	b952      	cbnz	r2, 8000f3e <ADC_DMAConvCplt+0x3c>
 8000f28:	6a9a      	ldr	r2, [r3, #40]	; 0x28
 8000f2a:	f422 7280 	bic.w	r2, r2, #256	; 0x100
 8000f2e:	629a      	str	r2, [r3, #40]	; 0x28
 8000f30:	6a9a      	ldr	r2, [r3, #40]	; 0x28
 8000f32:	04d2      	lsls	r2, r2, #19
 8000f34:	bf5e      	ittt	pl
 8000f36:	6a9a      	ldrpl	r2, [r3, #40]	; 0x28
 8000f38:	f042 0201 	orrpl.w	r2, r2, #1
 8000f3c:	629a      	strpl	r2, [r3, #40]	; 0x28
 8000f3e:	4618      	mov	r0, r3
 8000f40:	f7ff ffde 	bl	8000f00 <HAL_ADC_ConvCpltCallback>
 8000f44:	bd10      	pop	{r4, pc}
 8000f46:	6a1b      	ldr	r3, [r3, #32]
 8000f48:	e8bd 4010 	ldmia.w	sp!, {r4, lr}
 8000f4c:	6b1b      	ldr	r3, [r3, #48]	; 0x30
 8000f4e:	4718      	bx	r3

08000f50 <HAL_ADC_ConvHalfCpltCallback>:
 8000f50:	4770      	bx	lr

08000f52 <ADC_DMAHalfConvCplt>:
 8000f52:	b508      	push	{r3, lr}
 8000f54:	6a40      	ldr	r0, [r0, #36]	; 0x24
 8000f56:	f7ff fffb 	bl	8000f50 <HAL_ADC_ConvHalfCpltCallback>
 8000f5a:	bd08      	pop	{r3, pc}

08000f5c <HAL_ADC_ErrorCallback>:
 8000f5c:	4770      	bx	lr

08000f5e <ADC_DMAError>:
 8000f5e:	6a40      	ldr	r0, [r0, #36]	; 0x24
 8000f60:	b508      	push	{r3, lr}
 8000f62:	6a83      	ldr	r3, [r0, #40]	; 0x28
 8000f64:	f043 0340 	orr.w	r3, r3, #64	; 0x40
 8000f68:	6283      	str	r3, [r0, #40]	; 0x28
 8000f6a:	6ac3      	ldr	r3, [r0, #44]	; 0x2c
 8000f6c:	f043 0304 	orr.w	r3, r3, #4
 8000f70:	62c3      	str	r3, [r0, #44]	; 0x2c
 8000f72:	f7ff fff3 	bl	8000f5c <HAL_ADC_ErrorCallback>
 8000f76:	bd08      	pop	{r3, pc}

08000f78 <HAL_ADC_ConfigChannel>:
 8000f78:	2300      	movs	r3, #0
 8000f7a:	b573      	push	{r0, r1, r4, r5, r6, lr}
 8000f7c:	9301      	str	r3, [sp, #4]
 8000f7e:	f890 3024 	ldrb.w	r3, [r0, #36]	; 0x24
 8000f82:	2b01      	cmp	r3, #1
 8000f84:	d06d      	beq.n	8001062 <HAL_ADC_ConfigChannel+0xea>
 8000f86:	2301      	movs	r3, #1
 8000f88:	684d      	ldr	r5, [r1, #4]
 8000f8a:	f880 3024 	strb.w	r3, [r0, #36]	; 0x24
 8000f8e:	2d06      	cmp	r5, #6
 8000f90:	6802      	ldr	r2, [r0, #0]
 8000f92:	eb05 0385 	add.w	r3, r5, r5, lsl #2
 8000f96:	680c      	ldr	r4, [r1, #0]
 8000f98:	d823      	bhi.n	8000fe2 <HAL_ADC_ConfigChannel+0x6a>
 8000f9a:	261f      	movs	r6, #31
 8000f9c:	6b55      	ldr	r5, [r2, #52]	; 0x34
 8000f9e:	3b05      	subs	r3, #5
 8000fa0:	409e      	lsls	r6, r3
 8000fa2:	ea25 0506 	bic.w	r5, r5, r6
 8000fa6:	fa04 f303 	lsl.w	r3, r4, r3
 8000faa:	432b      	orrs	r3, r5
 8000fac:	6353      	str	r3, [r2, #52]	; 0x34
 8000fae:	2c09      	cmp	r4, #9
 8000fb0:	688b      	ldr	r3, [r1, #8]
 8000fb2:	eb04 0544 	add.w	r5, r4, r4, lsl #1
 8000fb6:	f04f 0107 	mov.w	r1, #7
 8000fba:	d92a      	bls.n	8001012 <HAL_ADC_ConfigChannel+0x9a>
 8000fbc:	68d6      	ldr	r6, [r2, #12]
 8000fbe:	3d1e      	subs	r5, #30
 8000fc0:	40a9      	lsls	r1, r5
 8000fc2:	ea26 0101 	bic.w	r1, r6, r1
 8000fc6:	40ab      	lsls	r3, r5
 8000fc8:	430b      	orrs	r3, r1
 8000fca:	60d3      	str	r3, [r2, #12]
 8000fcc:	f1a4 0310 	sub.w	r3, r4, #16
 8000fd0:	2b01      	cmp	r3, #1
 8000fd2:	d926      	bls.n	8001022 <HAL_ADC_ConfigChannel+0xaa>
 8000fd4:	2300      	movs	r3, #0
 8000fd6:	2200      	movs	r2, #0
 8000fd8:	f880 2024 	strb.w	r2, [r0, #36]	; 0x24
 8000fdc:	4618      	mov	r0, r3
 8000fde:	b002      	add	sp, #8
 8000fe0:	bd70      	pop	{r4, r5, r6, pc}
 8000fe2:	2d0c      	cmp	r5, #12
 8000fe4:	f04f 051f 	mov.w	r5, #31
 8000fe8:	d809      	bhi.n	8000ffe <HAL_ADC_ConfigChannel+0x86>
 8000fea:	6b16      	ldr	r6, [r2, #48]	; 0x30
 8000fec:	3b23      	subs	r3, #35	; 0x23
 8000fee:	409d      	lsls	r5, r3
 8000ff0:	ea26 0505 	bic.w	r5, r6, r5
 8000ff4:	fa04 f303 	lsl.w	r3, r4, r3
 8000ff8:	432b      	orrs	r3, r5
 8000ffa:	6313      	str	r3, [r2, #48]	; 0x30
 8000ffc:	e7d7      	b.n	8000fae <HAL_ADC_ConfigChannel+0x36>
 8000ffe:	6ad6      	ldr	r6, [r2, #44]	; 0x2c
 8001000:	3b41      	subs	r3, #65	; 0x41
 8001002:	409d      	lsls	r5, r3
 8001004:	ea26 0505 	bic.w	r5, r6, r5
 8001008:	fa04 f303 	lsl.w	r3, r4, r3
 800100c:	432b      	orrs	r3, r5
 800100e:	62d3      	str	r3, [r2, #44]	; 0x2c
 8001010:	e7cd      	b.n	8000fae <HAL_ADC_ConfigChannel+0x36>
 8001012:	6916      	ldr	r6, [r2, #16]
 8001014:	40a9      	lsls	r1, r5
 8001016:	ea26 0101 	bic.w	r1, r6, r1
 800101a:	40ab      	lsls	r3, r5
 800101c:	430b      	orrs	r3, r1
 800101e:	6113      	str	r3, [r2, #16]
 8001020:	e7d4      	b.n	8000fcc <HAL_ADC_ConfigChannel+0x54>
 8001022:	4b11      	ldr	r3, [pc, #68]	; (8001068 <HAL_ADC_ConfigChannel+0xf0>)
 8001024:	429a      	cmp	r2, r3
 8001026:	d116      	bne.n	8001056 <HAL_ADC_ConfigChannel+0xde>
 8001028:	6893      	ldr	r3, [r2, #8]
 800102a:	021b      	lsls	r3, r3, #8
 800102c:	d4d2      	bmi.n	8000fd4 <HAL_ADC_ConfigChannel+0x5c>
 800102e:	6893      	ldr	r3, [r2, #8]
 8001030:	2c10      	cmp	r4, #16
 8001032:	f443 0300 	orr.w	r3, r3, #8388608	; 0x800000
 8001036:	6093      	str	r3, [r2, #8]
 8001038:	d1cc      	bne.n	8000fd4 <HAL_ADC_ConfigChannel+0x5c>
 800103a:	4b0c      	ldr	r3, [pc, #48]	; (800106c <HAL_ADC_ConfigChannel+0xf4>)
 800103c:	4a0c      	ldr	r2, [pc, #48]	; (8001070 <HAL_ADC_ConfigChannel+0xf8>)
 800103e:	681b      	ldr	r3, [r3, #0]
 8001040:	fbb3 f2f2 	udiv	r2, r3, r2
 8001044:	230a      	movs	r3, #10
 8001046:	4353      	muls	r3, r2
 8001048:	9301      	str	r3, [sp, #4]
 800104a:	9b01      	ldr	r3, [sp, #4]
 800104c:	2b00      	cmp	r3, #0
 800104e:	d0c1      	beq.n	8000fd4 <HAL_ADC_ConfigChannel+0x5c>
 8001050:	9b01      	ldr	r3, [sp, #4]
 8001052:	3b01      	subs	r3, #1
 8001054:	e7f8      	b.n	8001048 <HAL_ADC_ConfigChannel+0xd0>
 8001056:	6a83      	ldr	r3, [r0, #40]	; 0x28
 8001058:	f043 0320 	orr.w	r3, r3, #32
 800105c:	6283      	str	r3, [r0, #40]	; 0x28
 800105e:	2301      	movs	r3, #1
 8001060:	e7b9      	b.n	8000fd6 <HAL_ADC_ConfigChannel+0x5e>
 8001062:	2302      	movs	r3, #2
 8001064:	e7ba      	b.n	8000fdc <HAL_ADC_ConfigChannel+0x64>
 8001066:	bf00      	nop
 8001068:	40012400 	.word	0x40012400
 800106c:	20000000 	.word	0x20000000
 8001070:	000f4240 	.word	0x000f4240

08001074 <ADC_Enable>:
 8001074:	2300      	movs	r3, #0
 8001076:	b573      	push	{r0, r1, r4, r5, r6, lr}
 8001078:	9301      	str	r3, [sp, #4]
 800107a:	6803      	ldr	r3, [r0, #0]
 800107c:	4604      	mov	r4, r0
 800107e:	689a      	ldr	r2, [r3, #8]
 8001080:	07d2      	lsls	r2, r2, #31
 8001082:	d502      	bpl.n	800108a <ADC_Enable+0x16>
 8001084:	2000      	movs	r0, #0
 8001086:	b002      	add	sp, #8
 8001088:	bd70      	pop	{r4, r5, r6, pc}
 800108a:	689a      	ldr	r2, [r3, #8]
 800108c:	f042 0201 	orr.w	r2, r2, #1
 8001090:	609a      	str	r2, [r3, #8]
 8001092:	4b12      	ldr	r3, [pc, #72]	; (80010dc <ADC_Enable+0x68>)
 8001094:	4a12      	ldr	r2, [pc, #72]	; (80010e0 <ADC_Enable+0x6c>)
 8001096:	681b      	ldr	r3, [r3, #0]
 8001098:	fbb3 f3f2 	udiv	r3, r3, r2
 800109c:	9301      	str	r3, [sp, #4]
 800109e:	9b01      	ldr	r3, [sp, #4]
 80010a0:	b9c3      	cbnz	r3, 80010d4 <ADC_Enable+0x60>
 80010a2:	f7ff ff27 	bl	8000ef4 <HAL_GetTick>
 80010a6:	4606      	mov	r6, r0
 80010a8:	6823      	ldr	r3, [r4, #0]
 80010aa:	689d      	ldr	r5, [r3, #8]
 80010ac:	f015 0501 	ands.w	r5, r5, #1
 80010b0:	d1e8      	bne.n	8001084 <ADC_Enable+0x10>
 80010b2:	f7ff ff1f 	bl	8000ef4 <HAL_GetTick>
 80010b6:	1b80      	subs	r0, r0, r6
 80010b8:	2802      	cmp	r0, #2
 80010ba:	d9f5      	bls.n	80010a8 <ADC_Enable+0x34>
 80010bc:	6aa3      	ldr	r3, [r4, #40]	; 0x28
 80010be:	f884 5024 	strb.w	r5, [r4, #36]	; 0x24
 80010c2:	f043 0310 	orr.w	r3, r3, #16
 80010c6:	62a3      	str	r3, [r4, #40]	; 0x28
 80010c8:	6ae3      	ldr	r3, [r4, #44]	; 0x2c
 80010ca:	2001      	movs	r0, #1
 80010cc:	f043 0301 	orr.w	r3, r3, #1
 80010d0:	62e3      	str	r3, [r4, #44]	; 0x2c
 80010d2:	e7d8      	b.n	8001086 <ADC_Enable+0x12>
 80010d4:	9b01      	ldr	r3, [sp, #4]
 80010d6:	3b01      	subs	r3, #1
 80010d8:	e7e0      	b.n	800109c <ADC_Enable+0x28>
 80010da:	bf00      	nop
 80010dc:	20000000 	.word	0x20000000
 80010e0:	000f4240 	.word	0x000f4240

080010e4 <HAL_ADC_Start_DMA>:
 80010e4:	e92d 41d8 	stmdb	sp!, {r3, r4, r6, r7, r8, lr}
 80010e8:	4690      	mov	r8, r2
 80010ea:	4b40      	ldr	r3, [pc, #256]	; (80011ec <HAL_ADC_Start_DMA+0x108>)
 80010ec:	6802      	ldr	r2, [r0, #0]
 80010ee:	4604      	mov	r4, r0
 80010f0:	429a      	cmp	r2, r3
 80010f2:	460f      	mov	r7, r1
 80010f4:	d002      	beq.n	80010fc <HAL_ADC_Start_DMA+0x18>
 80010f6:	493e      	ldr	r1, [pc, #248]	; (80011f0 <HAL_ADC_Start_DMA+0x10c>)
 80010f8:	428a      	cmp	r2, r1
 80010fa:	d103      	bne.n	8001104 <HAL_ADC_Start_DMA+0x20>
 80010fc:	685b      	ldr	r3, [r3, #4]
 80010fe:	f413 2f70 	tst.w	r3, #983040	; 0xf0000
 8001102:	d16e      	bne.n	80011e2 <HAL_ADC_Start_DMA+0xfe>
 8001104:	f894 3024 	ldrb.w	r3, [r4, #36]	; 0x24
 8001108:	2b01      	cmp	r3, #1
 800110a:	d06c      	beq.n	80011e6 <HAL_ADC_Start_DMA+0x102>
 800110c:	2301      	movs	r3, #1
 800110e:	4620      	mov	r0, r4
 8001110:	f884 3024 	strb.w	r3, [r4, #36]	; 0x24
 8001114:	f7ff ffae 	bl	8001074 <ADC_Enable>
 8001118:	4606      	mov	r6, r0
 800111a:	2800      	cmp	r0, #0
 800111c:	d15d      	bne.n	80011da <HAL_ADC_Start_DMA+0xf6>
 800111e:	6aa0      	ldr	r0, [r4, #40]	; 0x28
 8001120:	6821      	ldr	r1, [r4, #0]
 8001122:	f420 6070 	bic.w	r0, r0, #3840	; 0xf00
 8001126:	4b32      	ldr	r3, [pc, #200]	; (80011f0 <HAL_ADC_Start_DMA+0x10c>)
 8001128:	f020 0001 	bic.w	r0, r0, #1
 800112c:	f440 7080 	orr.w	r0, r0, #256	; 0x100
 8001130:	4299      	cmp	r1, r3
 8001132:	62a0      	str	r0, [r4, #40]	; 0x28
 8001134:	d104      	bne.n	8001140 <HAL_ADC_Start_DMA+0x5c>
 8001136:	4a2d      	ldr	r2, [pc, #180]	; (80011ec <HAL_ADC_Start_DMA+0x108>)
 8001138:	6853      	ldr	r3, [r2, #4]
 800113a:	f413 2f70 	tst.w	r3, #983040	; 0xf0000
 800113e:	d13e      	bne.n	80011be <HAL_ADC_Start_DMA+0xda>
 8001140:	6aa3      	ldr	r3, [r4, #40]	; 0x28
 8001142:	f423 1380 	bic.w	r3, r3, #1048576	; 0x100000
 8001146:	62a3      	str	r3, [r4, #40]	; 0x28
 8001148:	684b      	ldr	r3, [r1, #4]
 800114a:	055a      	lsls	r2, r3, #21
 800114c:	d505      	bpl.n	800115a <HAL_ADC_Start_DMA+0x76>
 800114e:	6aa3      	ldr	r3, [r4, #40]	; 0x28
 8001150:	f423 5340 	bic.w	r3, r3, #12288	; 0x3000
 8001154:	f443 5380 	orr.w	r3, r3, #4096	; 0x1000
 8001158:	62a3      	str	r3, [r4, #40]	; 0x28
 800115a:	6aa3      	ldr	r3, [r4, #40]	; 0x28
 800115c:	6a20      	ldr	r0, [r4, #32]
 800115e:	f413 5380 	ands.w	r3, r3, #4096	; 0x1000
 8001162:	bf18      	it	ne
 8001164:	6ae3      	ldrne	r3, [r4, #44]	; 0x2c
 8001166:	463a      	mov	r2, r7
 8001168:	bf18      	it	ne
 800116a:	f023 0306 	bicne.w	r3, r3, #6
 800116e:	62e3      	str	r3, [r4, #44]	; 0x2c
 8001170:	2300      	movs	r3, #0
 8001172:	f884 3024 	strb.w	r3, [r4, #36]	; 0x24
 8001176:	4b1f      	ldr	r3, [pc, #124]	; (80011f4 <HAL_ADC_Start_DMA+0x110>)
 8001178:	314c      	adds	r1, #76	; 0x4c
 800117a:	6283      	str	r3, [r0, #40]	; 0x28
 800117c:	4b1e      	ldr	r3, [pc, #120]	; (80011f8 <HAL_ADC_Start_DMA+0x114>)
 800117e:	62c3      	str	r3, [r0, #44]	; 0x2c
 8001180:	4b1e      	ldr	r3, [pc, #120]	; (80011fc <HAL_ADC_Start_DMA+0x118>)
 8001182:	6303      	str	r3, [r0, #48]	; 0x30
 8001184:	f06f 0302 	mvn.w	r3, #2
 8001188:	f841 3c4c 	str.w	r3, [r1, #-76]
 800118c:	f851 3c44 	ldr.w	r3, [r1, #-68]
 8001190:	f443 7380 	orr.w	r3, r3, #256	; 0x100
 8001194:	f841 3c44 	str.w	r3, [r1, #-68]
 8001198:	4643      	mov	r3, r8
 800119a:	f000 fa65 	bl	8001668 <HAL_DMA_Start_IT>
 800119e:	6823      	ldr	r3, [r4, #0]
 80011a0:	689a      	ldr	r2, [r3, #8]
 80011a2:	f402 2260 	and.w	r2, r2, #917504	; 0xe0000
 80011a6:	f5b2 2f60 	cmp.w	r2, #917504	; 0xe0000
 80011aa:	689a      	ldr	r2, [r3, #8]
 80011ac:	bf0c      	ite	eq
 80011ae:	f442 02a0 	orreq.w	r2, r2, #5242880	; 0x500000
 80011b2:	f442 1280 	orrne.w	r2, r2, #1048576	; 0x100000
 80011b6:	609a      	str	r2, [r3, #8]
 80011b8:	4630      	mov	r0, r6
 80011ba:	e8bd 81d8 	ldmia.w	sp!, {r3, r4, r6, r7, r8, pc}
 80011be:	6aa3      	ldr	r3, [r4, #40]	; 0x28
 80011c0:	f443 1380 	orr.w	r3, r3, #1048576	; 0x100000
 80011c4:	62a3      	str	r3, [r4, #40]	; 0x28
 80011c6:	6853      	ldr	r3, [r2, #4]
 80011c8:	055b      	lsls	r3, r3, #21
 80011ca:	bf41      	itttt	mi
 80011cc:	6aa0      	ldrmi	r0, [r4, #40]	; 0x28
 80011ce:	f420 5040 	bicmi.w	r0, r0, #12288	; 0x3000
 80011d2:	f440 5080 	orrmi.w	r0, r0, #4096	; 0x1000
 80011d6:	62a0      	strmi	r0, [r4, #40]	; 0x28
 80011d8:	e7bf      	b.n	800115a <HAL_ADC_Start_DMA+0x76>
 80011da:	2300      	movs	r3, #0
 80011dc:	f884 3024 	strb.w	r3, [r4, #36]	; 0x24
 80011e0:	e7ea      	b.n	80011b8 <HAL_ADC_Start_DMA+0xd4>
 80011e2:	2601      	movs	r6, #1
 80011e4:	e7e8      	b.n	80011b8 <HAL_ADC_Start_DMA+0xd4>
 80011e6:	2602      	movs	r6, #2
 80011e8:	e7e6      	b.n	80011b8 <HAL_ADC_Start_DMA+0xd4>
 80011ea:	bf00      	nop
 80011ec:	40012400 	.word	0x40012400
 80011f0:	40012800 	.word	0x40012800
 80011f4:	08000f03 	.word	0x08000f03
 80011f8:	08000f53 	.word	0x08000f53
 80011fc:	08000f5f 	.word	0x08000f5f

08001200 <ADC_ConversionStop_Disable>:
 8001200:	b538      	push	{r3, r4, r5, lr}
 8001202:	6803      	ldr	r3, [r0, #0]
 8001204:	4604      	mov	r4, r0
 8001206:	689a      	ldr	r2, [r3, #8]
 8001208:	07d2      	lsls	r2, r2, #31
 800120a:	d401      	bmi.n	8001210 <ADC_ConversionStop_Disable+0x10>
 800120c:	2000      	movs	r0, #0
 800120e:	bd38      	pop	{r3, r4, r5, pc}
 8001210:	689a      	ldr	r2, [r3, #8]
 8001212:	f022 0201 	bic.w	r2, r2, #1
 8001216:	609a      	str	r2, [r3, #8]
 8001218:	f7ff fe6c 	bl	8000ef4 <HAL_GetTick>
 800121c:	4605      	mov	r5, r0
 800121e:	6823      	ldr	r3, [r4, #0]
 8001220:	689b      	ldr	r3, [r3, #8]
 8001222:	07db      	lsls	r3, r3, #31
 8001224:	d5f2      	bpl.n	800120c <ADC_ConversionStop_Disable+0xc>
 8001226:	f7ff fe65 	bl	8000ef4 <HAL_GetTick>
 800122a:	1b40      	subs	r0, r0, r5
 800122c:	2802      	cmp	r0, #2
 800122e:	d9f6      	bls.n	800121e <ADC_ConversionStop_Disable+0x1e>
 8001230:	6aa3      	ldr	r3, [r4, #40]	; 0x28
 8001232:	2001      	movs	r0, #1
 8001234:	f043 0310 	orr.w	r3, r3, #16
 8001238:	62a3      	str	r3, [r4, #40]	; 0x28
 800123a:	6ae3      	ldr	r3, [r4, #44]	; 0x2c
 800123c:	f043 0301 	orr.w	r3, r3, #1
 8001240:	62e3      	str	r3, [r4, #44]	; 0x2c
 8001242:	e7e4      	b.n	800120e <ADC_ConversionStop_Disable+0xe>

08001244 <HAL_ADC_Init>:
 8001244:	b5f8      	push	{r3, r4, r5, r6, r7, lr}
 8001246:	4604      	mov	r4, r0
 8001248:	2800      	cmp	r0, #0
 800124a:	d077      	beq.n	800133c <HAL_ADC_Init+0xf8>
 800124c:	6a83      	ldr	r3, [r0, #40]	; 0x28
 800124e:	b923      	cbnz	r3, 800125a <HAL_ADC_Init+0x16>
 8001250:	62c3      	str	r3, [r0, #44]	; 0x2c
 8001252:	f880 3024 	strb.w	r3, [r0, #36]	; 0x24
 8001256:	f7ff fa71 	bl	800073c <HAL_ADC_MspInit>
 800125a:	4620      	mov	r0, r4
 800125c:	f7ff ffd0 	bl	8001200 <ADC_ConversionStop_Disable>
 8001260:	6aa3      	ldr	r3, [r4, #40]	; 0x28
 8001262:	f013 0310 	ands.w	r3, r3, #16
 8001266:	d16b      	bne.n	8001340 <HAL_ADC_Init+0xfc>
 8001268:	2800      	cmp	r0, #0
 800126a:	d169      	bne.n	8001340 <HAL_ADC_Init+0xfc>
 800126c:	6aa2      	ldr	r2, [r4, #40]	; 0x28
 800126e:	4e37      	ldr	r6, [pc, #220]	; (800134c <HAL_ADC_Init+0x108>)
 8001270:	f422 5288 	bic.w	r2, r2, #4352	; 0x1100
 8001274:	f022 0202 	bic.w	r2, r2, #2
 8001278:	f042 0202 	orr.w	r2, r2, #2
 800127c:	62a2      	str	r2, [r4, #40]	; 0x28
 800127e:	e9d4 2100 	ldrd	r2, r1, [r4]
 8001282:	42b2      	cmp	r2, r6
 8001284:	69e5      	ldr	r5, [r4, #28]
 8001286:	d104      	bne.n	8001292 <HAL_ADC_Init+0x4e>
 8001288:	f5b5 2f40 	cmp.w	r5, #786432	; 0xc0000
 800128c:	bf08      	it	eq
 800128e:	f44f 2500 	moveq.w	r5, #524288	; 0x80000
 8001292:	7b26      	ldrb	r6, [r4, #12]
 8001294:	ea41 0146 	orr.w	r1, r1, r6, lsl #1
 8001298:	4329      	orrs	r1, r5
 800129a:	68a5      	ldr	r5, [r4, #8]
 800129c:	f5b5 7f80 	cmp.w	r5, #256	; 0x100
 80012a0:	d035      	beq.n	800130e <HAL_ADC_Init+0xca>
 80012a2:	2d01      	cmp	r5, #1
 80012a4:	bf08      	it	eq
 80012a6:	f44f 7380 	moveq.w	r3, #256	; 0x100
 80012aa:	7d27      	ldrb	r7, [r4, #20]
 80012ac:	2f01      	cmp	r7, #1
 80012ae:	d106      	bne.n	80012be <HAL_ADC_Init+0x7a>
 80012b0:	bb7e      	cbnz	r6, 8001312 <HAL_ADC_Init+0xce>
 80012b2:	69a6      	ldr	r6, [r4, #24]
 80012b4:	3e01      	subs	r6, #1
 80012b6:	ea43 3346 	orr.w	r3, r3, r6, lsl #13
 80012ba:	f443 6300 	orr.w	r3, r3, #2048	; 0x800
 80012be:	6856      	ldr	r6, [r2, #4]
 80012c0:	f5b5 7f80 	cmp.w	r5, #256	; 0x100
 80012c4:	f426 4669 	bic.w	r6, r6, #59648	; 0xe900
 80012c8:	ea43 0306 	orr.w	r3, r3, r6
 80012cc:	6053      	str	r3, [r2, #4]
 80012ce:	6896      	ldr	r6, [r2, #8]
 80012d0:	4b1f      	ldr	r3, [pc, #124]	; (8001350 <HAL_ADC_Init+0x10c>)
 80012d2:	ea03 0306 	and.w	r3, r3, r6
 80012d6:	ea43 0301 	orr.w	r3, r3, r1
 80012da:	6093      	str	r3, [r2, #8]
 80012dc:	d001      	beq.n	80012e2 <HAL_ADC_Init+0x9e>
 80012de:	2d01      	cmp	r5, #1
 80012e0:	d120      	bne.n	8001324 <HAL_ADC_Init+0xe0>
 80012e2:	6923      	ldr	r3, [r4, #16]
 80012e4:	3b01      	subs	r3, #1
 80012e6:	051b      	lsls	r3, r3, #20
 80012e8:	6ad5      	ldr	r5, [r2, #44]	; 0x2c
 80012ea:	f425 0570 	bic.w	r5, r5, #15728640	; 0xf00000
 80012ee:	432b      	orrs	r3, r5
 80012f0:	62d3      	str	r3, [r2, #44]	; 0x2c
 80012f2:	6892      	ldr	r2, [r2, #8]
 80012f4:	4b17      	ldr	r3, [pc, #92]	; (8001354 <HAL_ADC_Init+0x110>)
 80012f6:	4013      	ands	r3, r2
 80012f8:	4299      	cmp	r1, r3
 80012fa:	d115      	bne.n	8001328 <HAL_ADC_Init+0xe4>
 80012fc:	2300      	movs	r3, #0
 80012fe:	62e3      	str	r3, [r4, #44]	; 0x2c
 8001300:	6aa3      	ldr	r3, [r4, #40]	; 0x28
 8001302:	f023 0303 	bic.w	r3, r3, #3
 8001306:	f043 0301 	orr.w	r3, r3, #1
 800130a:	62a3      	str	r3, [r4, #40]	; 0x28
 800130c:	bdf8      	pop	{r3, r4, r5, r6, r7, pc}
 800130e:	462b      	mov	r3, r5
 8001310:	e7cb      	b.n	80012aa <HAL_ADC_Init+0x66>
 8001312:	6aa6      	ldr	r6, [r4, #40]	; 0x28
 8001314:	f046 0620 	orr.w	r6, r6, #32
 8001318:	62a6      	str	r6, [r4, #40]	; 0x28
 800131a:	6ae6      	ldr	r6, [r4, #44]	; 0x2c
 800131c:	f046 0601 	orr.w	r6, r6, #1
 8001320:	62e6      	str	r6, [r4, #44]	; 0x2c
 8001322:	e7cc      	b.n	80012be <HAL_ADC_Init+0x7a>
 8001324:	2300      	movs	r3, #0
 8001326:	e7df      	b.n	80012e8 <HAL_ADC_Init+0xa4>
 8001328:	6aa3      	ldr	r3, [r4, #40]	; 0x28
 800132a:	f023 0312 	bic.w	r3, r3, #18
 800132e:	f043 0310 	orr.w	r3, r3, #16
 8001332:	62a3      	str	r3, [r4, #40]	; 0x28
 8001334:	6ae3      	ldr	r3, [r4, #44]	; 0x2c
 8001336:	f043 0301 	orr.w	r3, r3, #1
 800133a:	62e3      	str	r3, [r4, #44]	; 0x2c
 800133c:	2001      	movs	r0, #1
 800133e:	e7e5      	b.n	800130c <HAL_ADC_Init+0xc8>
 8001340:	6aa3      	ldr	r3, [r4, #40]	; 0x28
 8001342:	f043 0310 	orr.w	r3, r3, #16
 8001346:	62a3      	str	r3, [r4, #40]	; 0x28
 8001348:	e7f8      	b.n	800133c <HAL_ADC_Init+0xf8>
 800134a:	bf00      	nop
 800134c:	40013c00 	.word	0x40013c00
 8001350:	ffe1f7fd 	.word	0xffe1f7fd
 8001354:	ff1f0efe 	.word	0xff1f0efe

08001358 <HAL_CAN_Init>:
 8001358:	b538      	push	{r3, r4, r5, lr}
 800135a:	4604      	mov	r4, r0
 800135c:	2800      	cmp	r0, #0
 800135e:	d06e      	beq.n	800143e <HAL_CAN_Init+0xe6>
 8001360:	f890 3020 	ldrb.w	r3, [r0, #32]
 8001364:	b90b      	cbnz	r3, 800136a <HAL_CAN_Init+0x12>
 8001366:	f7ff fa51 	bl	800080c <HAL_CAN_MspInit>
 800136a:	6822      	ldr	r2, [r4, #0]
 800136c:	6813      	ldr	r3, [r2, #0]
 800136e:	f023 0302 	bic.w	r3, r3, #2
 8001372:	6013      	str	r3, [r2, #0]
 8001374:	f7ff fdbe 	bl	8000ef4 <HAL_GetTick>
 8001378:	4605      	mov	r5, r0
 800137a:	6823      	ldr	r3, [r4, #0]
 800137c:	685a      	ldr	r2, [r3, #4]
 800137e:	0791      	lsls	r1, r2, #30
 8001380:	d451      	bmi.n	8001426 <HAL_CAN_Init+0xce>
 8001382:	681a      	ldr	r2, [r3, #0]
 8001384:	f042 0201 	orr.w	r2, r2, #1
 8001388:	601a      	str	r2, [r3, #0]
 800138a:	f7ff fdb3 	bl	8000ef4 <HAL_GetTick>
 800138e:	4605      	mov	r5, r0
 8001390:	6823      	ldr	r3, [r4, #0]
 8001392:	685a      	ldr	r2, [r3, #4]
 8001394:	07d2      	lsls	r2, r2, #31
 8001396:	d554      	bpl.n	8001442 <HAL_CAN_Init+0xea>
 8001398:	7e22      	ldrb	r2, [r4, #24]
 800139a:	2000      	movs	r0, #0
 800139c:	2a01      	cmp	r2, #1
 800139e:	681a      	ldr	r2, [r3, #0]
 80013a0:	bf0c      	ite	eq
 80013a2:	f042 0280 	orreq.w	r2, r2, #128	; 0x80
 80013a6:	f022 0280 	bicne.w	r2, r2, #128	; 0x80
 80013aa:	601a      	str	r2, [r3, #0]
 80013ac:	7e62      	ldrb	r2, [r4, #25]
 80013ae:	2a01      	cmp	r2, #1
 80013b0:	681a      	ldr	r2, [r3, #0]
 80013b2:	bf0c      	ite	eq
 80013b4:	f042 0240 	orreq.w	r2, r2, #64	; 0x40
 80013b8:	f022 0240 	bicne.w	r2, r2, #64	; 0x40
 80013bc:	601a      	str	r2, [r3, #0]
 80013be:	7ea2      	ldrb	r2, [r4, #26]
 80013c0:	2a01      	cmp	r2, #1
 80013c2:	681a      	ldr	r2, [r3, #0]
 80013c4:	bf0c      	ite	eq
 80013c6:	f042 0220 	orreq.w	r2, r2, #32
 80013ca:	f022 0220 	bicne.w	r2, r2, #32
 80013ce:	601a      	str	r2, [r3, #0]
 80013d0:	7ee2      	ldrb	r2, [r4, #27]
 80013d2:	2a01      	cmp	r2, #1
 80013d4:	681a      	ldr	r2, [r3, #0]
 80013d6:	bf0c      	ite	eq
 80013d8:	f022 0210 	biceq.w	r2, r2, #16
 80013dc:	f042 0210 	orrne.w	r2, r2, #16
 80013e0:	601a      	str	r2, [r3, #0]
 80013e2:	7f22      	ldrb	r2, [r4, #28]
 80013e4:	2a01      	cmp	r2, #1
 80013e6:	681a      	ldr	r2, [r3, #0]
 80013e8:	bf0c      	ite	eq
 80013ea:	f042 0208 	orreq.w	r2, r2, #8
 80013ee:	f022 0208 	bicne.w	r2, r2, #8
 80013f2:	601a      	str	r2, [r3, #0]
 80013f4:	7f62      	ldrb	r2, [r4, #29]
 80013f6:	2a01      	cmp	r2, #1
 80013f8:	681a      	ldr	r2, [r3, #0]
 80013fa:	bf0c      	ite	eq
 80013fc:	f042 0204 	orreq.w	r2, r2, #4
 8001400:	f022 0204 	bicne.w	r2, r2, #4
 8001404:	601a      	str	r2, [r3, #0]
 8001406:	e9d4 2102 	ldrd	r2, r1, [r4, #8]
 800140a:	430a      	orrs	r2, r1
 800140c:	6921      	ldr	r1, [r4, #16]
 800140e:	430a      	orrs	r2, r1
 8001410:	6961      	ldr	r1, [r4, #20]
 8001412:	430a      	orrs	r2, r1
 8001414:	6861      	ldr	r1, [r4, #4]
 8001416:	3901      	subs	r1, #1
 8001418:	430a      	orrs	r2, r1
 800141a:	61da      	str	r2, [r3, #28]
 800141c:	2301      	movs	r3, #1
 800141e:	6260      	str	r0, [r4, #36]	; 0x24
 8001420:	f884 3020 	strb.w	r3, [r4, #32]
 8001424:	bd38      	pop	{r3, r4, r5, pc}
 8001426:	f7ff fd65 	bl	8000ef4 <HAL_GetTick>
 800142a:	1b40      	subs	r0, r0, r5
 800142c:	280a      	cmp	r0, #10
 800142e:	d9a4      	bls.n	800137a <HAL_CAN_Init+0x22>
 8001430:	6a63      	ldr	r3, [r4, #36]	; 0x24
 8001432:	f443 3300 	orr.w	r3, r3, #131072	; 0x20000
 8001436:	6263      	str	r3, [r4, #36]	; 0x24
 8001438:	2305      	movs	r3, #5
 800143a:	f884 3020 	strb.w	r3, [r4, #32]
 800143e:	2001      	movs	r0, #1
 8001440:	e7f0      	b.n	8001424 <HAL_CAN_Init+0xcc>
 8001442:	f7ff fd57 	bl	8000ef4 <HAL_GetTick>
 8001446:	1b40      	subs	r0, r0, r5
 8001448:	280a      	cmp	r0, #10
 800144a:	d9a1      	bls.n	8001390 <HAL_CAN_Init+0x38>
 800144c:	e7f0      	b.n	8001430 <HAL_CAN_Init+0xd8>

0800144e <HAL_CAN_Start>:
 800144e:	b538      	push	{r3, r4, r5, lr}
 8001450:	f890 3020 	ldrb.w	r3, [r0, #32]
 8001454:	4604      	mov	r4, r0
 8001456:	2b01      	cmp	r3, #1
 8001458:	d11f      	bne.n	800149a <HAL_CAN_Start+0x4c>
 800145a:	2302      	movs	r3, #2
 800145c:	6802      	ldr	r2, [r0, #0]
 800145e:	f880 3020 	strb.w	r3, [r0, #32]
 8001462:	6813      	ldr	r3, [r2, #0]
 8001464:	f023 0301 	bic.w	r3, r3, #1
 8001468:	6013      	str	r3, [r2, #0]
 800146a:	f7ff fd43 	bl	8000ef4 <HAL_GetTick>
 800146e:	4605      	mov	r5, r0
 8001470:	6823      	ldr	r3, [r4, #0]
 8001472:	6858      	ldr	r0, [r3, #4]
 8001474:	f010 0001 	ands.w	r0, r0, #1
 8001478:	d101      	bne.n	800147e <HAL_CAN_Start+0x30>
 800147a:	6260      	str	r0, [r4, #36]	; 0x24
 800147c:	bd38      	pop	{r3, r4, r5, pc}
 800147e:	f7ff fd39 	bl	8000ef4 <HAL_GetTick>
 8001482:	1b40      	subs	r0, r0, r5
 8001484:	280a      	cmp	r0, #10
 8001486:	d9f3      	bls.n	8001470 <HAL_CAN_Start+0x22>
 8001488:	6a63      	ldr	r3, [r4, #36]	; 0x24
 800148a:	f443 3300 	orr.w	r3, r3, #131072	; 0x20000
 800148e:	6263      	str	r3, [r4, #36]	; 0x24
 8001490:	2305      	movs	r3, #5
 8001492:	f884 3020 	strb.w	r3, [r4, #32]
 8001496:	2001      	movs	r0, #1
 8001498:	e7f0      	b.n	800147c <HAL_CAN_Start+0x2e>
 800149a:	6a43      	ldr	r3, [r0, #36]	; 0x24
 800149c:	f443 2300 	orr.w	r3, r3, #524288	; 0x80000
 80014a0:	6243      	str	r3, [r0, #36]	; 0x24
 80014a2:	e7f8      	b.n	8001496 <HAL_CAN_Start+0x48>

080014a4 <HAL_CAN_AddTxMessage>:
 80014a4:	b5f0      	push	{r4, r5, r6, r7, lr}
 80014a6:	f890 5020 	ldrb.w	r5, [r0, #32]
 80014aa:	6806      	ldr	r6, [r0, #0]
 80014ac:	3d01      	subs	r5, #1
 80014ae:	2d01      	cmp	r5, #1
 80014b0:	68b4      	ldr	r4, [r6, #8]
 80014b2:	d840      	bhi.n	8001536 <HAL_CAN_AddTxMessage+0x92>
 80014b4:	f014 5fe0 	tst.w	r4, #469762048	; 0x1c000000
 80014b8:	d039      	beq.n	800152e <HAL_CAN_AddTxMessage+0x8a>
 80014ba:	f3c4 6401 	ubfx	r4, r4, #24, #2
 80014be:	2c03      	cmp	r4, #3
 80014c0:	f04f 0501 	mov.w	r5, #1
 80014c4:	d105      	bne.n	80014d2 <HAL_CAN_AddTxMessage+0x2e>
 80014c6:	6a43      	ldr	r3, [r0, #36]	; 0x24
 80014c8:	f443 0300 	orr.w	r3, r3, #8388608	; 0x800000
 80014cc:	6243      	str	r3, [r0, #36]	; 0x24
 80014ce:	2001      	movs	r0, #1
 80014d0:	e027      	b.n	8001522 <HAL_CAN_AddTxMessage+0x7e>
 80014d2:	40a5      	lsls	r5, r4
 80014d4:	601d      	str	r5, [r3, #0]
 80014d6:	e9d1 0702 	ldrd	r0, r7, [r1, #8]
 80014da:	f104 0318 	add.w	r3, r4, #24
 80014de:	bb08      	cbnz	r0, 8001524 <HAL_CAN_AddTxMessage+0x80>
 80014e0:	6808      	ldr	r0, [r1, #0]
 80014e2:	ea47 5040 	orr.w	r0, r7, r0, lsl #21
 80014e6:	011b      	lsls	r3, r3, #4
 80014e8:	50f0      	str	r0, [r6, r3]
 80014ea:	6908      	ldr	r0, [r1, #16]
 80014ec:	0124      	lsls	r4, r4, #4
 80014ee:	1933      	adds	r3, r6, r4
 80014f0:	f8c3 0184 	str.w	r0, [r3, #388]	; 0x184
 80014f4:	2000      	movs	r0, #0
 80014f6:	7d09      	ldrb	r1, [r1, #20]
 80014f8:	4434      	add	r4, r6
 80014fa:	2901      	cmp	r1, #1
 80014fc:	bf02      	ittt	eq
 80014fe:	f8d3 1184 	ldreq.w	r1, [r3, #388]	; 0x184
 8001502:	f441 7180 	orreq.w	r1, r1, #256	; 0x100
 8001506:	f8c3 1184 	streq.w	r1, [r3, #388]	; 0x184
 800150a:	6851      	ldr	r1, [r2, #4]
 800150c:	f8c4 118c 	str.w	r1, [r4, #396]	; 0x18c
 8001510:	6812      	ldr	r2, [r2, #0]
 8001512:	f8c4 2188 	str.w	r2, [r4, #392]	; 0x188
 8001516:	f8d3 2180 	ldr.w	r2, [r3, #384]	; 0x180
 800151a:	f042 0201 	orr.w	r2, r2, #1
 800151e:	f8c3 2180 	str.w	r2, [r3, #384]	; 0x180
 8001522:	bdf0      	pop	{r4, r5, r6, r7, pc}
 8001524:	684d      	ldr	r5, [r1, #4]
 8001526:	4338      	orrs	r0, r7
 8001528:	ea40 00c5 	orr.w	r0, r0, r5, lsl #3
 800152c:	e7db      	b.n	80014e6 <HAL_CAN_AddTxMessage+0x42>
 800152e:	6a43      	ldr	r3, [r0, #36]	; 0x24
 8001530:	f443 1300 	orr.w	r3, r3, #2097152	; 0x200000
 8001534:	e7ca      	b.n	80014cc <HAL_CAN_AddTxMessage+0x28>
 8001536:	6a43      	ldr	r3, [r0, #36]	; 0x24
 8001538:	f443 2380 	orr.w	r3, r3, #262144	; 0x40000
 800153c:	e7c6      	b.n	80014cc <HAL_CAN_AddTxMessage+0x28>
	...

08001540 <HAL_NVIC_SetPriorityGrouping>:
 8001540:	4a07      	ldr	r2, [pc, #28]	; (8001560 <HAL_NVIC_SetPriorityGrouping+0x20>)
 8001542:	0200      	lsls	r0, r0, #8
 8001544:	68d3      	ldr	r3, [r2, #12]
 8001546:	f400 60e0 	and.w	r0, r0, #1792	; 0x700
 800154a:	f423 63e0 	bic.w	r3, r3, #1792	; 0x700
 800154e:	041b      	lsls	r3, r3, #16
 8001550:	0c1b      	lsrs	r3, r3, #16
 8001552:	f043 63bf 	orr.w	r3, r3, #100139008	; 0x5f80000
 8001556:	f443 3300 	orr.w	r3, r3, #131072	; 0x20000
 800155a:	4303      	orrs	r3, r0
 800155c:	60d3      	str	r3, [r2, #12]
 800155e:	4770      	bx	lr
 8001560:	e000ed00 	.word	0xe000ed00

08001564 <HAL_NVIC_SetPriority>:
 8001564:	4b17      	ldr	r3, [pc, #92]	; (80015c4 <HAL_NVIC_SetPriority+0x60>)
 8001566:	b570      	push	{r4, r5, r6, lr}
 8001568:	68dc      	ldr	r4, [r3, #12]
 800156a:	f04f 36ff 	mov.w	r6, #4294967295
 800156e:	f3c4 2402 	ubfx	r4, r4, #8, #3
 8001572:	f1c4 0507 	rsb	r5, r4, #7
 8001576:	2d04      	cmp	r5, #4
 8001578:	f104 0304 	add.w	r3, r4, #4
 800157c:	bf28      	it	cs
 800157e:	2504      	movcs	r5, #4
 8001580:	2b06      	cmp	r3, #6
 8001582:	bf98      	it	ls
 8001584:	2400      	movls	r4, #0
 8001586:	fa06 f305 	lsl.w	r3, r6, r5
 800158a:	bf88      	it	hi
 800158c:	3c03      	subhi	r4, #3
 800158e:	ea21 0303 	bic.w	r3, r1, r3
 8001592:	40a3      	lsls	r3, r4
 8001594:	fa06 f404 	lsl.w	r4, r6, r4
 8001598:	ea22 0404 	bic.w	r4, r2, r4
 800159c:	2800      	cmp	r0, #0
 800159e:	ea43 0304 	orr.w	r3, r3, r4
 80015a2:	bfa8      	it	ge
 80015a4:	f100 4060 	addge.w	r0, r0, #3758096384	; 0xe0000000
 80015a8:	ea4f 1303 	mov.w	r3, r3, lsl #4
 80015ac:	bfb8      	it	lt
 80015ae:	4a06      	ldrlt	r2, [pc, #24]	; (80015c8 <HAL_NVIC_SetPriority+0x64>)
 80015b0:	b2db      	uxtb	r3, r3
 80015b2:	bfab      	itete	ge
 80015b4:	f500 4061 	addge.w	r0, r0, #57600	; 0xe100
 80015b8:	f000 000f 	andlt.w	r0, r0, #15
 80015bc:	f880 3300 	strbge.w	r3, [r0, #768]	; 0x300
 80015c0:	5413      	strblt	r3, [r2, r0]
 80015c2:	bd70      	pop	{r4, r5, r6, pc}
 80015c4:	e000ed00 	.word	0xe000ed00
 80015c8:	e000ed14 	.word	0xe000ed14

080015cc <HAL_NVIC_EnableIRQ>:
 80015cc:	2800      	cmp	r0, #0
 80015ce:	db08      	blt.n	80015e2 <HAL_NVIC_EnableIRQ+0x16>
 80015d0:	2301      	movs	r3, #1
 80015d2:	0942      	lsrs	r2, r0, #5
 80015d4:	f000 001f 	and.w	r0, r0, #31
 80015d8:	fa03 f000 	lsl.w	r0, r3, r0
 80015dc:	4b01      	ldr	r3, [pc, #4]	; (80015e4 <HAL_NVIC_EnableIRQ+0x18>)
 80015de:	f843 0022 	str.w	r0, [r3, r2, lsl #2]
 80015e2:	4770      	bx	lr
 80015e4:	e000e100 	.word	0xe000e100

080015e8 <HAL_DMA_Init>:
 80015e8:	b510      	push	{r4, lr}
 80015ea:	2800      	cmp	r0, #0
 80015ec:	d032      	beq.n	8001654 <HAL_DMA_Init+0x6c>
 80015ee:	6801      	ldr	r1, [r0, #0]
 80015f0:	4b19      	ldr	r3, [pc, #100]	; (8001658 <HAL_DMA_Init+0x70>)
 80015f2:	2414      	movs	r4, #20
 80015f4:	4299      	cmp	r1, r3
 80015f6:	d825      	bhi.n	8001644 <HAL_DMA_Init+0x5c>
 80015f8:	4a18      	ldr	r2, [pc, #96]	; (800165c <HAL_DMA_Init+0x74>)
 80015fa:	f2a3 4307 	subw	r3, r3, #1031	; 0x407
 80015fe:	440a      	add	r2, r1
 8001600:	fbb2 f2f4 	udiv	r2, r2, r4
 8001604:	0092      	lsls	r2, r2, #2
 8001606:	6402      	str	r2, [r0, #64]	; 0x40
 8001608:	63c3      	str	r3, [r0, #60]	; 0x3c
 800160a:	e9d0 3401 	ldrd	r3, r4, [r0, #4]
 800160e:	4323      	orrs	r3, r4
 8001610:	68c4      	ldr	r4, [r0, #12]
 8001612:	680a      	ldr	r2, [r1, #0]
 8001614:	4323      	orrs	r3, r4
 8001616:	6904      	ldr	r4, [r0, #16]
 8001618:	f422 527f 	bic.w	r2, r2, #16320	; 0x3fc0
 800161c:	4323      	orrs	r3, r4
 800161e:	6944      	ldr	r4, [r0, #20]
 8001620:	f022 0230 	bic.w	r2, r2, #48	; 0x30
 8001624:	4323      	orrs	r3, r4
 8001626:	6984      	ldr	r4, [r0, #24]
 8001628:	4323      	orrs	r3, r4
 800162a:	69c4      	ldr	r4, [r0, #28]
 800162c:	4323      	orrs	r3, r4
 800162e:	4313      	orrs	r3, r2
 8001630:	600b      	str	r3, [r1, #0]
 8001632:	2201      	movs	r2, #1
 8001634:	2300      	movs	r3, #0
 8001636:	f880 2021 	strb.w	r2, [r0, #33]	; 0x21
 800163a:	6383      	str	r3, [r0, #56]	; 0x38
 800163c:	f880 3020 	strb.w	r3, [r0, #32]
 8001640:	4618      	mov	r0, r3
 8001642:	bd10      	pop	{r4, pc}
 8001644:	4b06      	ldr	r3, [pc, #24]	; (8001660 <HAL_DMA_Init+0x78>)
 8001646:	440b      	add	r3, r1
 8001648:	fbb3 f3f4 	udiv	r3, r3, r4
 800164c:	009b      	lsls	r3, r3, #2
 800164e:	6403      	str	r3, [r0, #64]	; 0x40
 8001650:	4b04      	ldr	r3, [pc, #16]	; (8001664 <HAL_DMA_Init+0x7c>)
 8001652:	e7d9      	b.n	8001608 <HAL_DMA_Init+0x20>
 8001654:	2001      	movs	r0, #1
 8001656:	e7f4      	b.n	8001642 <HAL_DMA_Init+0x5a>
 8001658:	40020407 	.word	0x40020407
 800165c:	bffdfff8 	.word	0xbffdfff8
 8001660:	bffdfbf8 	.word	0xbffdfbf8
 8001664:	40020400 	.word	0x40020400

08001668 <HAL_DMA_Start_IT>:
 8001668:	b5f0      	push	{r4, r5, r6, r7, lr}
 800166a:	f890 4020 	ldrb.w	r4, [r0, #32]
 800166e:	2c01      	cmp	r4, #1
 8001670:	d035      	beq.n	80016de <HAL_DMA_Start_IT+0x76>
 8001672:	2401      	movs	r4, #1
 8001674:	f890 5021 	ldrb.w	r5, [r0, #33]	; 0x21
 8001678:	f880 4020 	strb.w	r4, [r0, #32]
 800167c:	42a5      	cmp	r5, r4
 800167e:	f04f 0600 	mov.w	r6, #0
 8001682:	f04f 0402 	mov.w	r4, #2
 8001686:	d128      	bne.n	80016da <HAL_DMA_Start_IT+0x72>
 8001688:	f880 4021 	strb.w	r4, [r0, #33]	; 0x21
 800168c:	6804      	ldr	r4, [r0, #0]
 800168e:	6386      	str	r6, [r0, #56]	; 0x38
 8001690:	6826      	ldr	r6, [r4, #0]
 8001692:	f026 0601 	bic.w	r6, r6, #1
 8001696:	6026      	str	r6, [r4, #0]
 8001698:	e9d0 670f 	ldrd	r6, r7, [r0, #60]	; 0x3c
 800169c:	40bd      	lsls	r5, r7
 800169e:	6075      	str	r5, [r6, #4]
 80016a0:	6063      	str	r3, [r4, #4]
 80016a2:	6843      	ldr	r3, [r0, #4]
 80016a4:	6805      	ldr	r5, [r0, #0]
 80016a6:	2b10      	cmp	r3, #16
 80016a8:	6ac3      	ldr	r3, [r0, #44]	; 0x2c
 80016aa:	bf0b      	itete	eq
 80016ac:	60a2      	streq	r2, [r4, #8]
 80016ae:	60a1      	strne	r1, [r4, #8]
 80016b0:	60e1      	streq	r1, [r4, #12]
 80016b2:	60e2      	strne	r2, [r4, #12]
 80016b4:	b14b      	cbz	r3, 80016ca <HAL_DMA_Start_IT+0x62>
 80016b6:	6823      	ldr	r3, [r4, #0]
 80016b8:	f043 030e 	orr.w	r3, r3, #14
 80016bc:	2000      	movs	r0, #0
 80016be:	6023      	str	r3, [r4, #0]
 80016c0:	682b      	ldr	r3, [r5, #0]
 80016c2:	f043 0301 	orr.w	r3, r3, #1
 80016c6:	602b      	str	r3, [r5, #0]
 80016c8:	bdf0      	pop	{r4, r5, r6, r7, pc}
 80016ca:	6823      	ldr	r3, [r4, #0]
 80016cc:	f023 0304 	bic.w	r3, r3, #4
 80016d0:	6023      	str	r3, [r4, #0]
 80016d2:	6823      	ldr	r3, [r4, #0]
 80016d4:	f043 030a 	orr.w	r3, r3, #10
 80016d8:	e7f0      	b.n	80016bc <HAL_DMA_Start_IT+0x54>
 80016da:	f880 6020 	strb.w	r6, [r0, #32]
 80016de:	2002      	movs	r0, #2
 80016e0:	e7f2      	b.n	80016c8 <HAL_DMA_Start_IT+0x60>
	...

080016e4 <HAL_DMA_IRQHandler>:
 80016e4:	b470      	push	{r4, r5, r6}
 80016e6:	2504      	movs	r5, #4
 80016e8:	6bc6      	ldr	r6, [r0, #60]	; 0x3c
 80016ea:	6c02      	ldr	r2, [r0, #64]	; 0x40
 80016ec:	6834      	ldr	r4, [r6, #0]
 80016ee:	6803      	ldr	r3, [r0, #0]
 80016f0:	4095      	lsls	r5, r2
 80016f2:	4225      	tst	r5, r4
 80016f4:	6819      	ldr	r1, [r3, #0]
 80016f6:	f000 8085 	beq.w	8001804 <HAL_DMA_IRQHandler+0x120>
 80016fa:	074d      	lsls	r5, r1, #29
 80016fc:	f140 8082 	bpl.w	8001804 <HAL_DMA_IRQHandler+0x120>
 8001700:	681a      	ldr	r2, [r3, #0]
 8001702:	4992      	ldr	r1, [pc, #584]	; (800194c <HAL_DMA_IRQHandler+0x268>)
 8001704:	0696      	lsls	r6, r2, #26
 8001706:	bf5e      	ittt	pl
 8001708:	681a      	ldrpl	r2, [r3, #0]
 800170a:	f022 0204 	bicpl.w	r2, r2, #4
 800170e:	601a      	strpl	r2, [r3, #0]
 8001710:	4a8f      	ldr	r2, [pc, #572]	; (8001950 <HAL_DMA_IRQHandler+0x26c>)
 8001712:	4293      	cmp	r3, r2
 8001714:	d93e      	bls.n	8001794 <HAL_DMA_IRQHandler+0xb0>
 8001716:	428b      	cmp	r3, r1
 8001718:	d035      	beq.n	8001786 <HAL_DMA_IRQHandler+0xa2>
 800171a:	3114      	adds	r1, #20
 800171c:	428b      	cmp	r3, r1
 800171e:	d034      	beq.n	800178a <HAL_DMA_IRQHandler+0xa6>
 8001720:	3114      	adds	r1, #20
 8001722:	428b      	cmp	r3, r1
 8001724:	d033      	beq.n	800178e <HAL_DMA_IRQHandler+0xaa>
 8001726:	3114      	adds	r1, #20
 8001728:	428b      	cmp	r3, r1
 800172a:	d020      	beq.n	800176e <HAL_DMA_IRQHandler+0x8a>
 800172c:	3114      	adds	r1, #20
 800172e:	428b      	cmp	r3, r1
 8001730:	d020      	beq.n	8001774 <HAL_DMA_IRQHandler+0x90>
 8001732:	3114      	adds	r1, #20
 8001734:	428b      	cmp	r3, r1
 8001736:	d020      	beq.n	800177a <HAL_DMA_IRQHandler+0x96>
 8001738:	4293      	cmp	r3, r2
 800173a:	d021      	beq.n	8001780 <HAL_DMA_IRQHandler+0x9c>
 800173c:	f502 7262 	add.w	r2, r2, #904	; 0x388
 8001740:	4293      	cmp	r3, r2
 8001742:	d020      	beq.n	8001786 <HAL_DMA_IRQHandler+0xa2>
 8001744:	3214      	adds	r2, #20
 8001746:	4293      	cmp	r3, r2
 8001748:	d01f      	beq.n	800178a <HAL_DMA_IRQHandler+0xa6>
 800174a:	3214      	adds	r2, #20
 800174c:	4293      	cmp	r3, r2
 800174e:	d01e      	beq.n	800178e <HAL_DMA_IRQHandler+0xaa>
 8001750:	3214      	adds	r2, #20
 8001752:	4293      	cmp	r3, r2
 8001754:	bf14      	ite	ne
 8001756:	f44f 2380 	movne.w	r3, #262144	; 0x40000
 800175a:	f44f 4380 	moveq.w	r3, #16384	; 0x4000
 800175e:	4a7d      	ldr	r2, [pc, #500]	; (8001954 <HAL_DMA_IRQHandler+0x270>)
 8001760:	6053      	str	r3, [r2, #4]
 8001762:	6ac3      	ldr	r3, [r0, #44]	; 0x2c
 8001764:	2b00      	cmp	r3, #0
 8001766:	f000 80ef 	beq.w	8001948 <HAL_DMA_IRQHandler+0x264>
 800176a:	bc70      	pop	{r4, r5, r6}
 800176c:	4718      	bx	r3
 800176e:	f44f 4380 	mov.w	r3, #16384	; 0x4000
 8001772:	e7f4      	b.n	800175e <HAL_DMA_IRQHandler+0x7a>
 8001774:	f44f 2380 	mov.w	r3, #262144	; 0x40000
 8001778:	e7f1      	b.n	800175e <HAL_DMA_IRQHandler+0x7a>
 800177a:	f44f 0380 	mov.w	r3, #4194304	; 0x400000
 800177e:	e7ee      	b.n	800175e <HAL_DMA_IRQHandler+0x7a>
 8001780:	f04f 6380 	mov.w	r3, #67108864	; 0x4000000
 8001784:	e7eb      	b.n	800175e <HAL_DMA_IRQHandler+0x7a>
 8001786:	2304      	movs	r3, #4
 8001788:	e7e9      	b.n	800175e <HAL_DMA_IRQHandler+0x7a>
 800178a:	2340      	movs	r3, #64	; 0x40
 800178c:	e7e7      	b.n	800175e <HAL_DMA_IRQHandler+0x7a>
 800178e:	f44f 6380 	mov.w	r3, #1024	; 0x400
 8001792:	e7e4      	b.n	800175e <HAL_DMA_IRQHandler+0x7a>
 8001794:	428b      	cmp	r3, r1
 8001796:	d02e      	beq.n	80017f6 <HAL_DMA_IRQHandler+0x112>
 8001798:	496f      	ldr	r1, [pc, #444]	; (8001958 <HAL_DMA_IRQHandler+0x274>)
 800179a:	428b      	cmp	r3, r1
 800179c:	d02d      	beq.n	80017fa <HAL_DMA_IRQHandler+0x116>
 800179e:	3114      	adds	r1, #20
 80017a0:	428b      	cmp	r3, r1
 80017a2:	d02c      	beq.n	80017fe <HAL_DMA_IRQHandler+0x11a>
 80017a4:	3114      	adds	r1, #20
 80017a6:	428b      	cmp	r3, r1
 80017a8:	d019      	beq.n	80017de <HAL_DMA_IRQHandler+0xfa>
 80017aa:	3114      	adds	r1, #20
 80017ac:	428b      	cmp	r3, r1
 80017ae:	d019      	beq.n	80017e4 <HAL_DMA_IRQHandler+0x100>
 80017b0:	3114      	adds	r1, #20
 80017b2:	428b      	cmp	r3, r1
 80017b4:	d019      	beq.n	80017ea <HAL_DMA_IRQHandler+0x106>
 80017b6:	4293      	cmp	r3, r2
 80017b8:	d01a      	beq.n	80017f0 <HAL_DMA_IRQHandler+0x10c>
 80017ba:	4a68      	ldr	r2, [pc, #416]	; (800195c <HAL_DMA_IRQHandler+0x278>)
 80017bc:	4293      	cmp	r3, r2
 80017be:	d01a      	beq.n	80017f6 <HAL_DMA_IRQHandler+0x112>
 80017c0:	3214      	adds	r2, #20
 80017c2:	4293      	cmp	r3, r2
 80017c4:	d019      	beq.n	80017fa <HAL_DMA_IRQHandler+0x116>
 80017c6:	3214      	adds	r2, #20
 80017c8:	4293      	cmp	r3, r2
 80017ca:	d018      	beq.n	80017fe <HAL_DMA_IRQHandler+0x11a>
 80017cc:	3214      	adds	r2, #20
 80017ce:	4293      	cmp	r3, r2
 80017d0:	bf14      	ite	ne
 80017d2:	f44f 2380 	movne.w	r3, #262144	; 0x40000
 80017d6:	f44f 4380 	moveq.w	r3, #16384	; 0x4000
 80017da:	4a61      	ldr	r2, [pc, #388]	; (8001960 <HAL_DMA_IRQHandler+0x27c>)
 80017dc:	e7c0      	b.n	8001760 <HAL_DMA_IRQHandler+0x7c>
 80017de:	f44f 4380 	mov.w	r3, #16384	; 0x4000
 80017e2:	e7fa      	b.n	80017da <HAL_DMA_IRQHandler+0xf6>
 80017e4:	f44f 2380 	mov.w	r3, #262144	; 0x40000
 80017e8:	e7f7      	b.n	80017da <HAL_DMA_IRQHandler+0xf6>
 80017ea:	f44f 0380 	mov.w	r3, #4194304	; 0x400000
 80017ee:	e7f4      	b.n	80017da <HAL_DMA_IRQHandler+0xf6>
 80017f0:	f04f 6380 	mov.w	r3, #67108864	; 0x4000000
 80017f4:	e7f1      	b.n	80017da <HAL_DMA_IRQHandler+0xf6>
 80017f6:	2304      	movs	r3, #4
 80017f8:	e7ef      	b.n	80017da <HAL_DMA_IRQHandler+0xf6>
 80017fa:	2340      	movs	r3, #64	; 0x40
 80017fc:	e7ed      	b.n	80017da <HAL_DMA_IRQHandler+0xf6>
 80017fe:	f44f 6380 	mov.w	r3, #1024	; 0x400
 8001802:	e7ea      	b.n	80017da <HAL_DMA_IRQHandler+0xf6>
 8001804:	2502      	movs	r5, #2
 8001806:	4095      	lsls	r5, r2
 8001808:	4225      	tst	r5, r4
 800180a:	f000 8087 	beq.w	800191c <HAL_DMA_IRQHandler+0x238>
 800180e:	078d      	lsls	r5, r1, #30
 8001810:	f140 8084 	bpl.w	800191c <HAL_DMA_IRQHandler+0x238>
 8001814:	681a      	ldr	r2, [r3, #0]
 8001816:	0694      	lsls	r4, r2, #26
 8001818:	d406      	bmi.n	8001828 <HAL_DMA_IRQHandler+0x144>
 800181a:	681a      	ldr	r2, [r3, #0]
 800181c:	f022 020a 	bic.w	r2, r2, #10
 8001820:	601a      	str	r2, [r3, #0]
 8001822:	2201      	movs	r2, #1
 8001824:	f880 2021 	strb.w	r2, [r0, #33]	; 0x21
 8001828:	4a49      	ldr	r2, [pc, #292]	; (8001950 <HAL_DMA_IRQHandler+0x26c>)
 800182a:	4948      	ldr	r1, [pc, #288]	; (800194c <HAL_DMA_IRQHandler+0x268>)
 800182c:	4293      	cmp	r3, r2
 800182e:	d93d      	bls.n	80018ac <HAL_DMA_IRQHandler+0x1c8>
 8001830:	428b      	cmp	r3, r1
 8001832:	d034      	beq.n	800189e <HAL_DMA_IRQHandler+0x1ba>
 8001834:	3114      	adds	r1, #20
 8001836:	428b      	cmp	r3, r1
 8001838:	d033      	beq.n	80018a2 <HAL_DMA_IRQHandler+0x1be>
 800183a:	3114      	adds	r1, #20
 800183c:	428b      	cmp	r3, r1
 800183e:	d032      	beq.n	80018a6 <HAL_DMA_IRQHandler+0x1c2>
 8001840:	3114      	adds	r1, #20
 8001842:	428b      	cmp	r3, r1
 8001844:	d01f      	beq.n	8001886 <HAL_DMA_IRQHandler+0x1a2>
 8001846:	3114      	adds	r1, #20
 8001848:	428b      	cmp	r3, r1
 800184a:	d01f      	beq.n	800188c <HAL_DMA_IRQHandler+0x1a8>
 800184c:	3114      	adds	r1, #20
 800184e:	428b      	cmp	r3, r1
 8001850:	d01f      	beq.n	8001892 <HAL_DMA_IRQHandler+0x1ae>
 8001852:	4293      	cmp	r3, r2
 8001854:	d020      	beq.n	8001898 <HAL_DMA_IRQHandler+0x1b4>
 8001856:	f502 7262 	add.w	r2, r2, #904	; 0x388
 800185a:	4293      	cmp	r3, r2
 800185c:	d01f      	beq.n	800189e <HAL_DMA_IRQHandler+0x1ba>
 800185e:	3214      	adds	r2, #20
 8001860:	4293      	cmp	r3, r2
 8001862:	d01e      	beq.n	80018a2 <HAL_DMA_IRQHandler+0x1be>
 8001864:	3214      	adds	r2, #20
 8001866:	4293      	cmp	r3, r2
 8001868:	d01d      	beq.n	80018a6 <HAL_DMA_IRQHandler+0x1c2>
 800186a:	3214      	adds	r2, #20
 800186c:	4293      	cmp	r3, r2
 800186e:	bf14      	ite	ne
 8001870:	f44f 3300 	movne.w	r3, #131072	; 0x20000
 8001874:	f44f 5300 	moveq.w	r3, #8192	; 0x2000
 8001878:	4a36      	ldr	r2, [pc, #216]	; (8001954 <HAL_DMA_IRQHandler+0x270>)
 800187a:	6053      	str	r3, [r2, #4]
 800187c:	2300      	movs	r3, #0
 800187e:	f880 3020 	strb.w	r3, [r0, #32]
 8001882:	6a83      	ldr	r3, [r0, #40]	; 0x28
 8001884:	e76e      	b.n	8001764 <HAL_DMA_IRQHandler+0x80>
 8001886:	f44f 5300 	mov.w	r3, #8192	; 0x2000
 800188a:	e7f5      	b.n	8001878 <HAL_DMA_IRQHandler+0x194>
 800188c:	f44f 3300 	mov.w	r3, #131072	; 0x20000
 8001890:	e7f2      	b.n	8001878 <HAL_DMA_IRQHandler+0x194>
 8001892:	f44f 1300 	mov.w	r3, #2097152	; 0x200000
 8001896:	e7ef      	b.n	8001878 <HAL_DMA_IRQHandler+0x194>
 8001898:	f04f 7300 	mov.w	r3, #33554432	; 0x2000000
 800189c:	e7ec      	b.n	8001878 <HAL_DMA_IRQHandler+0x194>
 800189e:	2302      	movs	r3, #2
 80018a0:	e7ea      	b.n	8001878 <HAL_DMA_IRQHandler+0x194>
 80018a2:	2320      	movs	r3, #32
 80018a4:	e7e8      	b.n	8001878 <HAL_DMA_IRQHandler+0x194>
 80018a6:	f44f 7300 	mov.w	r3, #512	; 0x200
 80018aa:	e7e5      	b.n	8001878 <HAL_DMA_IRQHandler+0x194>
 80018ac:	428b      	cmp	r3, r1
 80018ae:	d02e      	beq.n	800190e <HAL_DMA_IRQHandler+0x22a>
 80018b0:	4929      	ldr	r1, [pc, #164]	; (8001958 <HAL_DMA_IRQHandler+0x274>)
 80018b2:	428b      	cmp	r3, r1
 80018b4:	d02d      	beq.n	8001912 <HAL_DMA_IRQHandler+0x22e>
 80018b6:	3114      	adds	r1, #20
 80018b8:	428b      	cmp	r3, r1
 80018ba:	d02c      	beq.n	8001916 <HAL_DMA_IRQHandler+0x232>
 80018bc:	3114      	adds	r1, #20
 80018be:	428b      	cmp	r3, r1
 80018c0:	d019      	beq.n	80018f6 <HAL_DMA_IRQHandler+0x212>
 80018c2:	3114      	adds	r1, #20
 80018c4:	428b      	cmp	r3, r1
 80018c6:	d019      	beq.n	80018fc <HAL_DMA_IRQHandler+0x218>
 80018c8:	3114      	adds	r1, #20
 80018ca:	428b      	cmp	r3, r1
 80018cc:	d019      	beq.n	8001902 <HAL_DMA_IRQHandler+0x21e>
 80018ce:	4293      	cmp	r3, r2
 80018d0:	d01a      	beq.n	8001908 <HAL_DMA_IRQHandler+0x224>
 80018d2:	4a22      	ldr	r2, [pc, #136]	; (800195c <HAL_DMA_IRQHandler+0x278>)
 80018d4:	4293      	cmp	r3, r2
 80018d6:	d01a      	beq.n	800190e <HAL_DMA_IRQHandler+0x22a>
 80018d8:	3214      	adds	r2, #20
 80018da:	4293      	cmp	r3, r2
 80018dc:	d019      	beq.n	8001912 <HAL_DMA_IRQHandler+0x22e>
 80018de:	3214      	adds	r2, #20
 80018e0:	4293      	cmp	r3, r2
 80018e2:	d018      	beq.n	8001916 <HAL_DMA_IRQHandler+0x232>
 80018e4:	3214      	adds	r2, #20
 80018e6:	4293      	cmp	r3, r2
 80018e8:	bf14      	ite	ne
 80018ea:	f44f 3300 	movne.w	r3, #131072	; 0x20000
 80018ee:	f44f 5300 	moveq.w	r3, #8192	; 0x2000
 80018f2:	4a1b      	ldr	r2, [pc, #108]	; (8001960 <HAL_DMA_IRQHandler+0x27c>)
 80018f4:	e7c1      	b.n	800187a <HAL_DMA_IRQHandler+0x196>
 80018f6:	f44f 5300 	mov.w	r3, #8192	; 0x2000
 80018fa:	e7fa      	b.n	80018f2 <HAL_DMA_IRQHandler+0x20e>
 80018fc:	f44f 3300 	mov.w	r3, #131072	; 0x20000
 8001900:	e7f7      	b.n	80018f2 <HAL_DMA_IRQHandler+0x20e>
 8001902:	f44f 1300 	mov.w	r3, #2097152	; 0x200000
 8001906:	e7f4      	b.n	80018f2 <HAL_DMA_IRQHandler+0x20e>
 8001908:	f04f 7300 	mov.w	r3, #33554432	; 0x2000000
 800190c:	e7f1      	b.n	80018f2 <HAL_DMA_IRQHandler+0x20e>
 800190e:	2302      	movs	r3, #2
 8001910:	e7ef      	b.n	80018f2 <HAL_DMA_IRQHandler+0x20e>
 8001912:	2320      	movs	r3, #32
 8001914:	e7ed      	b.n	80018f2 <HAL_DMA_IRQHandler+0x20e>
 8001916:	f44f 7300 	mov.w	r3, #512	; 0x200
 800191a:	e7ea      	b.n	80018f2 <HAL_DMA_IRQHandler+0x20e>
 800191c:	2508      	movs	r5, #8
 800191e:	4095      	lsls	r5, r2
 8001920:	4225      	tst	r5, r4
 8001922:	d011      	beq.n	8001948 <HAL_DMA_IRQHandler+0x264>
 8001924:	0709      	lsls	r1, r1, #28
 8001926:	d50f      	bpl.n	8001948 <HAL_DMA_IRQHandler+0x264>
 8001928:	6819      	ldr	r1, [r3, #0]
 800192a:	f021 010e 	bic.w	r1, r1, #14
 800192e:	6019      	str	r1, [r3, #0]
 8001930:	2301      	movs	r3, #1
 8001932:	fa03 f202 	lsl.w	r2, r3, r2
 8001936:	6072      	str	r2, [r6, #4]
 8001938:	6383      	str	r3, [r0, #56]	; 0x38
 800193a:	f880 3021 	strb.w	r3, [r0, #33]	; 0x21
 800193e:	2300      	movs	r3, #0
 8001940:	f880 3020 	strb.w	r3, [r0, #32]
 8001944:	6b03      	ldr	r3, [r0, #48]	; 0x30
 8001946:	e70d      	b.n	8001764 <HAL_DMA_IRQHandler+0x80>
 8001948:	bc70      	pop	{r4, r5, r6}
 800194a:	4770      	bx	lr
 800194c:	40020008 	.word	0x40020008
 8001950:	40020080 	.word	0x40020080
 8001954:	40020400 	.word	0x40020400
 8001958:	4002001c 	.word	0x4002001c
 800195c:	40020408 	.word	0x40020408
 8001960:	40020000 	.word	0x40020000

08001964 <HAL_GPIO_Init>:
 8001964:	e92d 4ff7 	stmdb	sp!, {r0, r1, r2, r4, r5, r6, r7, r8, r9, sl, fp, lr}
 8001968:	2400      	movs	r4, #0
 800196a:	4626      	mov	r6, r4
 800196c:	4f6c      	ldr	r7, [pc, #432]	; (8001b20 <HAL_GPIO_Init+0x1bc>)
 800196e:	4b6d      	ldr	r3, [pc, #436]	; (8001b24 <HAL_GPIO_Init+0x1c0>)
 8001970:	f8df c1b8 	ldr.w	ip, [pc, #440]	; 8001b2c <HAL_GPIO_Init+0x1c8>
 8001974:	f8df e1b8 	ldr.w	lr, [pc, #440]	; 8001b30 <HAL_GPIO_Init+0x1cc>
 8001978:	680a      	ldr	r2, [r1, #0]
 800197a:	fa32 f506 	lsrs.w	r5, r2, r6
 800197e:	d102      	bne.n	8001986 <HAL_GPIO_Init+0x22>
 8001980:	b003      	add	sp, #12
 8001982:	e8bd 8ff0 	ldmia.w	sp!, {r4, r5, r6, r7, r8, r9, sl, fp, pc}
 8001986:	f04f 0801 	mov.w	r8, #1
 800198a:	fa08 f806 	lsl.w	r8, r8, r6
 800198e:	ea02 0208 	and.w	r2, r2, r8
 8001992:	4590      	cmp	r8, r2
 8001994:	f040 8084 	bne.w	8001aa0 <HAL_GPIO_Init+0x13c>
 8001998:	684d      	ldr	r5, [r1, #4]
 800199a:	2d12      	cmp	r5, #18
 800199c:	f000 80b1 	beq.w	8001b02 <HAL_GPIO_Init+0x19e>
 80019a0:	f200 8087 	bhi.w	8001ab2 <HAL_GPIO_Init+0x14e>
 80019a4:	2d02      	cmp	r5, #2
 80019a6:	f000 80a9 	beq.w	8001afc <HAL_GPIO_Init+0x198>
 80019aa:	d87b      	bhi.n	8001aa4 <HAL_GPIO_Init+0x140>
 80019ac:	2d00      	cmp	r5, #0
 80019ae:	f000 808c 	beq.w	8001aca <HAL_GPIO_Init+0x166>
 80019b2:	2d01      	cmp	r5, #1
 80019b4:	f000 80a0 	beq.w	8001af8 <HAL_GPIO_Init+0x194>
 80019b8:	f04f 090f 	mov.w	r9, #15
 80019bc:	2aff      	cmp	r2, #255	; 0xff
 80019be:	bf93      	iteet	ls
 80019c0:	4682      	movls	sl, r0
 80019c2:	f106 4580 	addhi.w	r5, r6, #1073741824	; 0x40000000
 80019c6:	3d08      	subhi	r5, #8
 80019c8:	f8d0 b000 	ldrls.w	fp, [r0]
 80019cc:	bf92      	itee	ls
 80019ce:	00b5      	lslls	r5, r6, #2
 80019d0:	f8d0 b004 	ldrhi.w	fp, [r0, #4]
 80019d4:	00ad      	lslhi	r5, r5, #2
 80019d6:	fa09 f805 	lsl.w	r8, r9, r5
 80019da:	ea2b 0808 	bic.w	r8, fp, r8
 80019de:	fa04 f505 	lsl.w	r5, r4, r5
 80019e2:	bf88      	it	hi
 80019e4:	f100 0a04 	addhi.w	sl, r0, #4
 80019e8:	ea48 0505 	orr.w	r5, r8, r5
 80019ec:	f8ca 5000 	str.w	r5, [sl]
 80019f0:	f8d1 a004 	ldr.w	sl, [r1, #4]
 80019f4:	f01a 5f80 	tst.w	sl, #268435456	; 0x10000000
 80019f8:	d052      	beq.n	8001aa0 <HAL_GPIO_Init+0x13c>
 80019fa:	69bd      	ldr	r5, [r7, #24]
 80019fc:	f026 0803 	bic.w	r8, r6, #3
 8001a00:	f045 0501 	orr.w	r5, r5, #1
 8001a04:	61bd      	str	r5, [r7, #24]
 8001a06:	69bd      	ldr	r5, [r7, #24]
 8001a08:	f108 4880 	add.w	r8, r8, #1073741824	; 0x40000000
 8001a0c:	f005 0501 	and.w	r5, r5, #1
 8001a10:	9501      	str	r5, [sp, #4]
 8001a12:	f508 3880 	add.w	r8, r8, #65536	; 0x10000
 8001a16:	f006 0b03 	and.w	fp, r6, #3
 8001a1a:	9d01      	ldr	r5, [sp, #4]
 8001a1c:	ea4f 0b8b 	mov.w	fp, fp, lsl #2
 8001a20:	f8d8 5008 	ldr.w	r5, [r8, #8]
 8001a24:	fa09 f90b 	lsl.w	r9, r9, fp
 8001a28:	ea25 0909 	bic.w	r9, r5, r9
 8001a2c:	4d3e      	ldr	r5, [pc, #248]	; (8001b28 <HAL_GPIO_Init+0x1c4>)
 8001a2e:	42a8      	cmp	r0, r5
 8001a30:	d06c      	beq.n	8001b0c <HAL_GPIO_Init+0x1a8>
 8001a32:	f505 6580 	add.w	r5, r5, #1024	; 0x400
 8001a36:	42a8      	cmp	r0, r5
 8001a38:	d06a      	beq.n	8001b10 <HAL_GPIO_Init+0x1ac>
 8001a3a:	f505 6580 	add.w	r5, r5, #1024	; 0x400
 8001a3e:	42a8      	cmp	r0, r5
 8001a40:	d068      	beq.n	8001b14 <HAL_GPIO_Init+0x1b0>
 8001a42:	f505 6580 	add.w	r5, r5, #1024	; 0x400
 8001a46:	42a8      	cmp	r0, r5
 8001a48:	d066      	beq.n	8001b18 <HAL_GPIO_Init+0x1b4>
 8001a4a:	f505 6580 	add.w	r5, r5, #1024	; 0x400
 8001a4e:	42a8      	cmp	r0, r5
 8001a50:	d064      	beq.n	8001b1c <HAL_GPIO_Init+0x1b8>
 8001a52:	4560      	cmp	r0, ip
 8001a54:	bf0c      	ite	eq
 8001a56:	2505      	moveq	r5, #5
 8001a58:	2506      	movne	r5, #6
 8001a5a:	fa05 f50b 	lsl.w	r5, r5, fp
 8001a5e:	ea45 0509 	orr.w	r5, r5, r9
 8001a62:	f8c8 5008 	str.w	r5, [r8, #8]
 8001a66:	681d      	ldr	r5, [r3, #0]
 8001a68:	f41a 3f80 	tst.w	sl, #65536	; 0x10000
 8001a6c:	bf14      	ite	ne
 8001a6e:	4315      	orrne	r5, r2
 8001a70:	4395      	biceq	r5, r2
 8001a72:	601d      	str	r5, [r3, #0]
 8001a74:	685d      	ldr	r5, [r3, #4]
 8001a76:	f41a 3f00 	tst.w	sl, #131072	; 0x20000
 8001a7a:	bf14      	ite	ne
 8001a7c:	4315      	orrne	r5, r2
 8001a7e:	4395      	biceq	r5, r2
 8001a80:	605d      	str	r5, [r3, #4]
 8001a82:	689d      	ldr	r5, [r3, #8]
 8001a84:	f41a 1f80 	tst.w	sl, #1048576	; 0x100000
 8001a88:	bf14      	ite	ne
 8001a8a:	4315      	orrne	r5, r2
 8001a8c:	4395      	biceq	r5, r2
 8001a8e:	609d      	str	r5, [r3, #8]
 8001a90:	68dd      	ldr	r5, [r3, #12]
 8001a92:	f41a 1f00 	tst.w	sl, #2097152	; 0x200000
 8001a96:	bf14      	ite	ne
 8001a98:	432a      	orrne	r2, r5
 8001a9a:	ea25 0202 	biceq.w	r2, r5, r2
 8001a9e:	60da      	str	r2, [r3, #12]
 8001aa0:	3601      	adds	r6, #1
 8001aa2:	e769      	b.n	8001978 <HAL_GPIO_Init+0x14>
 8001aa4:	2d03      	cmp	r5, #3
 8001aa6:	d025      	beq.n	8001af4 <HAL_GPIO_Init+0x190>
 8001aa8:	2d11      	cmp	r5, #17
 8001aaa:	d185      	bne.n	80019b8 <HAL_GPIO_Init+0x54>
 8001aac:	68cc      	ldr	r4, [r1, #12]
 8001aae:	3404      	adds	r4, #4
 8001ab0:	e782      	b.n	80019b8 <HAL_GPIO_Init+0x54>
 8001ab2:	4575      	cmp	r5, lr
 8001ab4:	d009      	beq.n	8001aca <HAL_GPIO_Init+0x166>
 8001ab6:	d812      	bhi.n	8001ade <HAL_GPIO_Init+0x17a>
 8001ab8:	f8df 9078 	ldr.w	r9, [pc, #120]	; 8001b34 <HAL_GPIO_Init+0x1d0>
 8001abc:	454d      	cmp	r5, r9
 8001abe:	d004      	beq.n	8001aca <HAL_GPIO_Init+0x166>
 8001ac0:	f509 3980 	add.w	r9, r9, #65536	; 0x10000
 8001ac4:	454d      	cmp	r5, r9
 8001ac6:	f47f af77 	bne.w	80019b8 <HAL_GPIO_Init+0x54>
 8001aca:	688c      	ldr	r4, [r1, #8]
 8001acc:	b1e4      	cbz	r4, 8001b08 <HAL_GPIO_Init+0x1a4>
 8001ace:	2c01      	cmp	r4, #1
 8001ad0:	bf0c      	ite	eq
 8001ad2:	f8c0 8010 	streq.w	r8, [r0, #16]
 8001ad6:	f8c0 8014 	strne.w	r8, [r0, #20]
 8001ada:	2408      	movs	r4, #8
 8001adc:	e76c      	b.n	80019b8 <HAL_GPIO_Init+0x54>
 8001ade:	f8df 9058 	ldr.w	r9, [pc, #88]	; 8001b38 <HAL_GPIO_Init+0x1d4>
 8001ae2:	454d      	cmp	r5, r9
 8001ae4:	d0f1      	beq.n	8001aca <HAL_GPIO_Init+0x166>
 8001ae6:	f509 3980 	add.w	r9, r9, #65536	; 0x10000
 8001aea:	454d      	cmp	r5, r9
 8001aec:	d0ed      	beq.n	8001aca <HAL_GPIO_Init+0x166>
 8001aee:	f5a9 1980 	sub.w	r9, r9, #1048576	; 0x100000
 8001af2:	e7e7      	b.n	8001ac4 <HAL_GPIO_Init+0x160>
 8001af4:	2400      	movs	r4, #0
 8001af6:	e75f      	b.n	80019b8 <HAL_GPIO_Init+0x54>
 8001af8:	68cc      	ldr	r4, [r1, #12]
 8001afa:	e75d      	b.n	80019b8 <HAL_GPIO_Init+0x54>
 8001afc:	68cc      	ldr	r4, [r1, #12]
 8001afe:	3408      	adds	r4, #8
 8001b00:	e75a      	b.n	80019b8 <HAL_GPIO_Init+0x54>
 8001b02:	68cc      	ldr	r4, [r1, #12]
 8001b04:	340c      	adds	r4, #12
 8001b06:	e757      	b.n	80019b8 <HAL_GPIO_Init+0x54>
 8001b08:	2404      	movs	r4, #4
 8001b0a:	e755      	b.n	80019b8 <HAL_GPIO_Init+0x54>
 8001b0c:	2500      	movs	r5, #0
 8001b0e:	e7a4      	b.n	8001a5a <HAL_GPIO_Init+0xf6>
 8001b10:	2501      	movs	r5, #1
 8001b12:	e7a2      	b.n	8001a5a <HAL_GPIO_Init+0xf6>
 8001b14:	2502      	movs	r5, #2
 8001b16:	e7a0      	b.n	8001a5a <HAL_GPIO_Init+0xf6>
 8001b18:	2503      	movs	r5, #3
 8001b1a:	e79e      	b.n	8001a5a <HAL_GPIO_Init+0xf6>
 8001b1c:	2504      	movs	r5, #4
 8001b1e:	e79c      	b.n	8001a5a <HAL_GPIO_Init+0xf6>
 8001b20:	40021000 	.word	0x40021000
 8001b24:	40010400 	.word	0x40010400
 8001b28:	40010800 	.word	0x40010800
 8001b2c:	40011c00 	.word	0x40011c00
 8001b30:	10210000 	.word	0x10210000
 8001b34:	10110000 	.word	0x10110000
 8001b38:	10310000 	.word	0x10310000

08001b3c <HAL_GPIO_ReadPin>:
 8001b3c:	6883      	ldr	r3, [r0, #8]
 8001b3e:	4219      	tst	r1, r3
 8001b40:	bf14      	ite	ne
 8001b42:	2001      	movne	r0, #1
 8001b44:	2000      	moveq	r0, #0
 8001b46:	4770      	bx	lr

08001b48 <HAL_GPIO_WritePin>:
 8001b48:	b10a      	cbz	r2, 8001b4e <HAL_GPIO_WritePin+0x6>
 8001b4a:	6101      	str	r1, [r0, #16]
 8001b4c:	4770      	bx	lr
 8001b4e:	0409      	lsls	r1, r1, #16
 8001b50:	e7fb      	b.n	8001b4a <HAL_GPIO_WritePin+0x2>

08001b52 <HAL_GPIO_EXTI_Callback>:
 8001b52:	4770      	bx	lr

08001b54 <HAL_GPIO_EXTI_IRQHandler>:
 8001b54:	b508      	push	{r3, lr}
 8001b56:	4b04      	ldr	r3, [pc, #16]	; (8001b68 <HAL_GPIO_EXTI_IRQHandler+0x14>)
 8001b58:	6959      	ldr	r1, [r3, #20]
 8001b5a:	4201      	tst	r1, r0
 8001b5c:	d002      	beq.n	8001b64 <HAL_GPIO_EXTI_IRQHandler+0x10>
 8001b5e:	6158      	str	r0, [r3, #20]
 8001b60:	f7ff fff7 	bl	8001b52 <HAL_GPIO_EXTI_Callback>
 8001b64:	bd08      	pop	{r3, pc}
 8001b66:	bf00      	nop
 8001b68:	40010400 	.word	0x40010400

08001b6c <HAL_RCC_OscConfig>:
 8001b6c:	e92d 41f3 	stmdb	sp!, {r0, r1, r4, r5, r6, r7, r8, lr}
 8001b70:	4605      	mov	r5, r0
 8001b72:	b908      	cbnz	r0, 8001b78 <HAL_RCC_OscConfig+0xc>
 8001b74:	2001      	movs	r0, #1
 8001b76:	e03c      	b.n	8001bf2 <HAL_RCC_OscConfig+0x86>
 8001b78:	6803      	ldr	r3, [r0, #0]
 8001b7a:	07db      	lsls	r3, r3, #31
 8001b7c:	d410      	bmi.n	8001ba0 <HAL_RCC_OscConfig+0x34>
 8001b7e:	682b      	ldr	r3, [r5, #0]
 8001b80:	079f      	lsls	r7, r3, #30
 8001b82:	d45d      	bmi.n	8001c40 <HAL_RCC_OscConfig+0xd4>
 8001b84:	682b      	ldr	r3, [r5, #0]
 8001b86:	0719      	lsls	r1, r3, #28
 8001b88:	f100 8094 	bmi.w	8001cb4 <HAL_RCC_OscConfig+0x148>
 8001b8c:	682b      	ldr	r3, [r5, #0]
 8001b8e:	075a      	lsls	r2, r3, #29
 8001b90:	f100 80be 	bmi.w	8001d10 <HAL_RCC_OscConfig+0x1a4>
 8001b94:	69e8      	ldr	r0, [r5, #28]
 8001b96:	2800      	cmp	r0, #0
 8001b98:	f040 812c 	bne.w	8001df4 <HAL_RCC_OscConfig+0x288>
 8001b9c:	2000      	movs	r0, #0
 8001b9e:	e028      	b.n	8001bf2 <HAL_RCC_OscConfig+0x86>
 8001ba0:	4c8f      	ldr	r4, [pc, #572]	; (8001de0 <HAL_RCC_OscConfig+0x274>)
 8001ba2:	6863      	ldr	r3, [r4, #4]
 8001ba4:	f003 030c 	and.w	r3, r3, #12
 8001ba8:	2b04      	cmp	r3, #4
 8001baa:	d007      	beq.n	8001bbc <HAL_RCC_OscConfig+0x50>
 8001bac:	6863      	ldr	r3, [r4, #4]
 8001bae:	f003 030c 	and.w	r3, r3, #12
 8001bb2:	2b08      	cmp	r3, #8
 8001bb4:	d109      	bne.n	8001bca <HAL_RCC_OscConfig+0x5e>
 8001bb6:	6863      	ldr	r3, [r4, #4]
 8001bb8:	03de      	lsls	r6, r3, #15
 8001bba:	d506      	bpl.n	8001bca <HAL_RCC_OscConfig+0x5e>
 8001bbc:	6823      	ldr	r3, [r4, #0]
 8001bbe:	039c      	lsls	r4, r3, #14
 8001bc0:	d5dd      	bpl.n	8001b7e <HAL_RCC_OscConfig+0x12>
 8001bc2:	686b      	ldr	r3, [r5, #4]
 8001bc4:	2b00      	cmp	r3, #0
 8001bc6:	d1da      	bne.n	8001b7e <HAL_RCC_OscConfig+0x12>
 8001bc8:	e7d4      	b.n	8001b74 <HAL_RCC_OscConfig+0x8>
 8001bca:	686b      	ldr	r3, [r5, #4]
 8001bcc:	f5b3 3f80 	cmp.w	r3, #65536	; 0x10000
 8001bd0:	d112      	bne.n	8001bf8 <HAL_RCC_OscConfig+0x8c>
 8001bd2:	6823      	ldr	r3, [r4, #0]
 8001bd4:	f443 3380 	orr.w	r3, r3, #65536	; 0x10000
 8001bd8:	6023      	str	r3, [r4, #0]
 8001bda:	f7ff f98b 	bl	8000ef4 <HAL_GetTick>
 8001bde:	4606      	mov	r6, r0
 8001be0:	6823      	ldr	r3, [r4, #0]
 8001be2:	0398      	lsls	r0, r3, #14
 8001be4:	d4cb      	bmi.n	8001b7e <HAL_RCC_OscConfig+0x12>
 8001be6:	f7ff f985 	bl	8000ef4 <HAL_GetTick>
 8001bea:	1b80      	subs	r0, r0, r6
 8001bec:	2864      	cmp	r0, #100	; 0x64
 8001bee:	d9f7      	bls.n	8001be0 <HAL_RCC_OscConfig+0x74>
 8001bf0:	2003      	movs	r0, #3
 8001bf2:	b002      	add	sp, #8
 8001bf4:	e8bd 81f0 	ldmia.w	sp!, {r4, r5, r6, r7, r8, pc}
 8001bf8:	b99b      	cbnz	r3, 8001c22 <HAL_RCC_OscConfig+0xb6>
 8001bfa:	6823      	ldr	r3, [r4, #0]
 8001bfc:	f423 3380 	bic.w	r3, r3, #65536	; 0x10000
 8001c00:	6023      	str	r3, [r4, #0]
 8001c02:	6823      	ldr	r3, [r4, #0]
 8001c04:	f423 2380 	bic.w	r3, r3, #262144	; 0x40000
 8001c08:	6023      	str	r3, [r4, #0]
 8001c0a:	f7ff f973 	bl	8000ef4 <HAL_GetTick>
 8001c0e:	4606      	mov	r6, r0
 8001c10:	6823      	ldr	r3, [r4, #0]
 8001c12:	0399      	lsls	r1, r3, #14
 8001c14:	d5b3      	bpl.n	8001b7e <HAL_RCC_OscConfig+0x12>
 8001c16:	f7ff f96d 	bl	8000ef4 <HAL_GetTick>
 8001c1a:	1b80      	subs	r0, r0, r6
 8001c1c:	2864      	cmp	r0, #100	; 0x64
 8001c1e:	d9f7      	bls.n	8001c10 <HAL_RCC_OscConfig+0xa4>
 8001c20:	e7e6      	b.n	8001bf0 <HAL_RCC_OscConfig+0x84>
 8001c22:	f5b3 2fa0 	cmp.w	r3, #327680	; 0x50000
 8001c26:	6823      	ldr	r3, [r4, #0]
 8001c28:	d103      	bne.n	8001c32 <HAL_RCC_OscConfig+0xc6>
 8001c2a:	f443 2380 	orr.w	r3, r3, #262144	; 0x40000
 8001c2e:	6023      	str	r3, [r4, #0]
 8001c30:	e7cf      	b.n	8001bd2 <HAL_RCC_OscConfig+0x66>
 8001c32:	f423 3380 	bic.w	r3, r3, #65536	; 0x10000
 8001c36:	6023      	str	r3, [r4, #0]
 8001c38:	6823      	ldr	r3, [r4, #0]
 8001c3a:	f423 2380 	bic.w	r3, r3, #262144	; 0x40000
 8001c3e:	e7cb      	b.n	8001bd8 <HAL_RCC_OscConfig+0x6c>
 8001c40:	4c67      	ldr	r4, [pc, #412]	; (8001de0 <HAL_RCC_OscConfig+0x274>)
 8001c42:	6863      	ldr	r3, [r4, #4]
 8001c44:	f013 0f0c 	tst.w	r3, #12
 8001c48:	d007      	beq.n	8001c5a <HAL_RCC_OscConfig+0xee>
 8001c4a:	6863      	ldr	r3, [r4, #4]
 8001c4c:	f003 030c 	and.w	r3, r3, #12
 8001c50:	2b08      	cmp	r3, #8
 8001c52:	d110      	bne.n	8001c76 <HAL_RCC_OscConfig+0x10a>
 8001c54:	6863      	ldr	r3, [r4, #4]
 8001c56:	03da      	lsls	r2, r3, #15
 8001c58:	d40d      	bmi.n	8001c76 <HAL_RCC_OscConfig+0x10a>
 8001c5a:	6823      	ldr	r3, [r4, #0]
 8001c5c:	079b      	lsls	r3, r3, #30
 8001c5e:	d502      	bpl.n	8001c66 <HAL_RCC_OscConfig+0xfa>
 8001c60:	692b      	ldr	r3, [r5, #16]
 8001c62:	2b01      	cmp	r3, #1
 8001c64:	d186      	bne.n	8001b74 <HAL_RCC_OscConfig+0x8>
 8001c66:	6823      	ldr	r3, [r4, #0]
 8001c68:	696a      	ldr	r2, [r5, #20]
 8001c6a:	f023 03f8 	bic.w	r3, r3, #248	; 0xf8
 8001c6e:	ea43 03c2 	orr.w	r3, r3, r2, lsl #3
 8001c72:	6023      	str	r3, [r4, #0]
 8001c74:	e786      	b.n	8001b84 <HAL_RCC_OscConfig+0x18>
 8001c76:	692a      	ldr	r2, [r5, #16]
 8001c78:	4b5a      	ldr	r3, [pc, #360]	; (8001de4 <HAL_RCC_OscConfig+0x278>)
 8001c7a:	b16a      	cbz	r2, 8001c98 <HAL_RCC_OscConfig+0x12c>
 8001c7c:	2201      	movs	r2, #1
 8001c7e:	601a      	str	r2, [r3, #0]
 8001c80:	f7ff f938 	bl	8000ef4 <HAL_GetTick>
 8001c84:	4606      	mov	r6, r0
 8001c86:	6823      	ldr	r3, [r4, #0]
 8001c88:	079f      	lsls	r7, r3, #30
 8001c8a:	d4ec      	bmi.n	8001c66 <HAL_RCC_OscConfig+0xfa>
 8001c8c:	f7ff f932 	bl	8000ef4 <HAL_GetTick>
 8001c90:	1b80      	subs	r0, r0, r6
 8001c92:	2802      	cmp	r0, #2
 8001c94:	d9f7      	bls.n	8001c86 <HAL_RCC_OscConfig+0x11a>
 8001c96:	e7ab      	b.n	8001bf0 <HAL_RCC_OscConfig+0x84>
 8001c98:	601a      	str	r2, [r3, #0]
 8001c9a:	f7ff f92b 	bl	8000ef4 <HAL_GetTick>
 8001c9e:	4606      	mov	r6, r0
 8001ca0:	6823      	ldr	r3, [r4, #0]
 8001ca2:	0798      	lsls	r0, r3, #30
 8001ca4:	f57f af6e 	bpl.w	8001b84 <HAL_RCC_OscConfig+0x18>
 8001ca8:	f7ff f924 	bl	8000ef4 <HAL_GetTick>
 8001cac:	1b80      	subs	r0, r0, r6
 8001cae:	2802      	cmp	r0, #2
 8001cb0:	d9f6      	bls.n	8001ca0 <HAL_RCC_OscConfig+0x134>
 8001cb2:	e79d      	b.n	8001bf0 <HAL_RCC_OscConfig+0x84>
 8001cb4:	69aa      	ldr	r2, [r5, #24]
 8001cb6:	4c4a      	ldr	r4, [pc, #296]	; (8001de0 <HAL_RCC_OscConfig+0x274>)
 8001cb8:	4b4b      	ldr	r3, [pc, #300]	; (8001de8 <HAL_RCC_OscConfig+0x27c>)
 8001cba:	b1da      	cbz	r2, 8001cf4 <HAL_RCC_OscConfig+0x188>
 8001cbc:	2201      	movs	r2, #1
 8001cbe:	601a      	str	r2, [r3, #0]
 8001cc0:	f7ff f918 	bl	8000ef4 <HAL_GetTick>
 8001cc4:	4606      	mov	r6, r0
 8001cc6:	6a63      	ldr	r3, [r4, #36]	; 0x24
 8001cc8:	079b      	lsls	r3, r3, #30
 8001cca:	d50d      	bpl.n	8001ce8 <HAL_RCC_OscConfig+0x17c>
 8001ccc:	f44f 52fa 	mov.w	r2, #8000	; 0x1f40
 8001cd0:	4b46      	ldr	r3, [pc, #280]	; (8001dec <HAL_RCC_OscConfig+0x280>)
 8001cd2:	681b      	ldr	r3, [r3, #0]
 8001cd4:	fbb3 f3f2 	udiv	r3, r3, r2
 8001cd8:	9301      	str	r3, [sp, #4]
 8001cda:	bf00      	nop
 8001cdc:	9b01      	ldr	r3, [sp, #4]
 8001cde:	1e5a      	subs	r2, r3, #1
 8001ce0:	9201      	str	r2, [sp, #4]
 8001ce2:	2b00      	cmp	r3, #0
 8001ce4:	d1f9      	bne.n	8001cda <HAL_RCC_OscConfig+0x16e>
 8001ce6:	e751      	b.n	8001b8c <HAL_RCC_OscConfig+0x20>
 8001ce8:	f7ff f904 	bl	8000ef4 <HAL_GetTick>
 8001cec:	1b80      	subs	r0, r0, r6
 8001cee:	2802      	cmp	r0, #2
 8001cf0:	d9e9      	bls.n	8001cc6 <HAL_RCC_OscConfig+0x15a>
 8001cf2:	e77d      	b.n	8001bf0 <HAL_RCC_OscConfig+0x84>
 8001cf4:	601a      	str	r2, [r3, #0]
 8001cf6:	f7ff f8fd 	bl	8000ef4 <HAL_GetTick>
 8001cfa:	4606      	mov	r6, r0
 8001cfc:	6a63      	ldr	r3, [r4, #36]	; 0x24
 8001cfe:	079f      	lsls	r7, r3, #30
 8001d00:	f57f af44 	bpl.w	8001b8c <HAL_RCC_OscConfig+0x20>
 8001d04:	f7ff f8f6 	bl	8000ef4 <HAL_GetTick>
 8001d08:	1b80      	subs	r0, r0, r6
 8001d0a:	2802      	cmp	r0, #2
 8001d0c:	d9f6      	bls.n	8001cfc <HAL_RCC_OscConfig+0x190>
 8001d0e:	e76f      	b.n	8001bf0 <HAL_RCC_OscConfig+0x84>
 8001d10:	4c33      	ldr	r4, [pc, #204]	; (8001de0 <HAL_RCC_OscConfig+0x274>)
 8001d12:	69e3      	ldr	r3, [r4, #28]
 8001d14:	00d8      	lsls	r0, r3, #3
 8001d16:	d424      	bmi.n	8001d62 <HAL_RCC_OscConfig+0x1f6>
 8001d18:	2701      	movs	r7, #1
 8001d1a:	69e3      	ldr	r3, [r4, #28]
 8001d1c:	f043 5380 	orr.w	r3, r3, #268435456	; 0x10000000
 8001d20:	61e3      	str	r3, [r4, #28]
 8001d22:	69e3      	ldr	r3, [r4, #28]
 8001d24:	f003 5380 	and.w	r3, r3, #268435456	; 0x10000000
 8001d28:	9300      	str	r3, [sp, #0]
 8001d2a:	9b00      	ldr	r3, [sp, #0]
 8001d2c:	4e30      	ldr	r6, [pc, #192]	; (8001df0 <HAL_RCC_OscConfig+0x284>)
 8001d2e:	6833      	ldr	r3, [r6, #0]
 8001d30:	05d9      	lsls	r1, r3, #23
 8001d32:	d518      	bpl.n	8001d66 <HAL_RCC_OscConfig+0x1fa>
 8001d34:	68eb      	ldr	r3, [r5, #12]
 8001d36:	2b01      	cmp	r3, #1
 8001d38:	d126      	bne.n	8001d88 <HAL_RCC_OscConfig+0x21c>
 8001d3a:	6a23      	ldr	r3, [r4, #32]
 8001d3c:	f043 0301 	orr.w	r3, r3, #1
 8001d40:	6223      	str	r3, [r4, #32]
 8001d42:	f7ff f8d7 	bl	8000ef4 <HAL_GetTick>
 8001d46:	f241 3688 	movw	r6, #5000	; 0x1388
 8001d4a:	4680      	mov	r8, r0
 8001d4c:	6a23      	ldr	r3, [r4, #32]
 8001d4e:	079b      	lsls	r3, r3, #30
 8001d50:	d53f      	bpl.n	8001dd2 <HAL_RCC_OscConfig+0x266>
 8001d52:	2f00      	cmp	r7, #0
 8001d54:	f43f af1e 	beq.w	8001b94 <HAL_RCC_OscConfig+0x28>
 8001d58:	69e3      	ldr	r3, [r4, #28]
 8001d5a:	f023 5380 	bic.w	r3, r3, #268435456	; 0x10000000
 8001d5e:	61e3      	str	r3, [r4, #28]
 8001d60:	e718      	b.n	8001b94 <HAL_RCC_OscConfig+0x28>
 8001d62:	2700      	movs	r7, #0
 8001d64:	e7e2      	b.n	8001d2c <HAL_RCC_OscConfig+0x1c0>
 8001d66:	6833      	ldr	r3, [r6, #0]
 8001d68:	f443 7380 	orr.w	r3, r3, #256	; 0x100
 8001d6c:	6033      	str	r3, [r6, #0]
 8001d6e:	f7ff f8c1 	bl	8000ef4 <HAL_GetTick>
 8001d72:	4680      	mov	r8, r0
 8001d74:	6833      	ldr	r3, [r6, #0]
 8001d76:	05da      	lsls	r2, r3, #23
 8001d78:	d4dc      	bmi.n	8001d34 <HAL_RCC_OscConfig+0x1c8>
 8001d7a:	f7ff f8bb 	bl	8000ef4 <HAL_GetTick>
 8001d7e:	eba0 0008 	sub.w	r0, r0, r8
 8001d82:	2864      	cmp	r0, #100	; 0x64
 8001d84:	d9f6      	bls.n	8001d74 <HAL_RCC_OscConfig+0x208>
 8001d86:	e733      	b.n	8001bf0 <HAL_RCC_OscConfig+0x84>
 8001d88:	b9ab      	cbnz	r3, 8001db6 <HAL_RCC_OscConfig+0x24a>
 8001d8a:	6a23      	ldr	r3, [r4, #32]
 8001d8c:	f241 3888 	movw	r8, #5000	; 0x1388
 8001d90:	f023 0301 	bic.w	r3, r3, #1
 8001d94:	6223      	str	r3, [r4, #32]
 8001d96:	6a23      	ldr	r3, [r4, #32]
 8001d98:	f023 0304 	bic.w	r3, r3, #4
 8001d9c:	6223      	str	r3, [r4, #32]
 8001d9e:	f7ff f8a9 	bl	8000ef4 <HAL_GetTick>
 8001da2:	4606      	mov	r6, r0
 8001da4:	6a23      	ldr	r3, [r4, #32]
 8001da6:	0798      	lsls	r0, r3, #30
 8001da8:	d5d3      	bpl.n	8001d52 <HAL_RCC_OscConfig+0x1e6>
 8001daa:	f7ff f8a3 	bl	8000ef4 <HAL_GetTick>
 8001dae:	1b80      	subs	r0, r0, r6
 8001db0:	4540      	cmp	r0, r8
 8001db2:	d9f7      	bls.n	8001da4 <HAL_RCC_OscConfig+0x238>
 8001db4:	e71c      	b.n	8001bf0 <HAL_RCC_OscConfig+0x84>
 8001db6:	2b05      	cmp	r3, #5
 8001db8:	6a23      	ldr	r3, [r4, #32]
 8001dba:	d103      	bne.n	8001dc4 <HAL_RCC_OscConfig+0x258>
 8001dbc:	f043 0304 	orr.w	r3, r3, #4
 8001dc0:	6223      	str	r3, [r4, #32]
 8001dc2:	e7ba      	b.n	8001d3a <HAL_RCC_OscConfig+0x1ce>
 8001dc4:	f023 0301 	bic.w	r3, r3, #1
 8001dc8:	6223      	str	r3, [r4, #32]
 8001dca:	6a23      	ldr	r3, [r4, #32]
 8001dcc:	f023 0304 	bic.w	r3, r3, #4
 8001dd0:	e7b6      	b.n	8001d40 <HAL_RCC_OscConfig+0x1d4>
 8001dd2:	f7ff f88f 	bl	8000ef4 <HAL_GetTick>
 8001dd6:	eba0 0008 	sub.w	r0, r0, r8
 8001dda:	42b0      	cmp	r0, r6
 8001ddc:	d9b6      	bls.n	8001d4c <HAL_RCC_OscConfig+0x1e0>
 8001dde:	e707      	b.n	8001bf0 <HAL_RCC_OscConfig+0x84>
 8001de0:	40021000 	.word	0x40021000
 8001de4:	42420000 	.word	0x42420000
 8001de8:	42420480 	.word	0x42420480
 8001dec:	20000000 	.word	0x20000000
 8001df0:	40007000 	.word	0x40007000
 8001df4:	4b2a      	ldr	r3, [pc, #168]	; (8001ea0 <HAL_RCC_OscConfig+0x334>)
 8001df6:	685a      	ldr	r2, [r3, #4]
 8001df8:	461c      	mov	r4, r3
 8001dfa:	f002 020c 	and.w	r2, r2, #12
 8001dfe:	2a08      	cmp	r2, #8
 8001e00:	d03d      	beq.n	8001e7e <HAL_RCC_OscConfig+0x312>
 8001e02:	2300      	movs	r3, #0
 8001e04:	4e27      	ldr	r6, [pc, #156]	; (8001ea4 <HAL_RCC_OscConfig+0x338>)
 8001e06:	2802      	cmp	r0, #2
 8001e08:	6033      	str	r3, [r6, #0]
 8001e0a:	d12b      	bne.n	8001e64 <HAL_RCC_OscConfig+0x2f8>
 8001e0c:	f7ff f872 	bl	8000ef4 <HAL_GetTick>
 8001e10:	4607      	mov	r7, r0
 8001e12:	6823      	ldr	r3, [r4, #0]
 8001e14:	0199      	lsls	r1, r3, #6
 8001e16:	d41f      	bmi.n	8001e58 <HAL_RCC_OscConfig+0x2ec>
 8001e18:	6a2b      	ldr	r3, [r5, #32]
 8001e1a:	f5b3 3f80 	cmp.w	r3, #65536	; 0x10000
 8001e1e:	d105      	bne.n	8001e2c <HAL_RCC_OscConfig+0x2c0>
 8001e20:	6862      	ldr	r2, [r4, #4]
 8001e22:	68a9      	ldr	r1, [r5, #8]
 8001e24:	f422 3200 	bic.w	r2, r2, #131072	; 0x20000
 8001e28:	430a      	orrs	r2, r1
 8001e2a:	6062      	str	r2, [r4, #4]
 8001e2c:	6a69      	ldr	r1, [r5, #36]	; 0x24
 8001e2e:	6862      	ldr	r2, [r4, #4]
 8001e30:	430b      	orrs	r3, r1
 8001e32:	f422 1274 	bic.w	r2, r2, #3997696	; 0x3d0000
 8001e36:	4313      	orrs	r3, r2
 8001e38:	6063      	str	r3, [r4, #4]
 8001e3a:	2301      	movs	r3, #1
 8001e3c:	6033      	str	r3, [r6, #0]
 8001e3e:	f7ff f859 	bl	8000ef4 <HAL_GetTick>
 8001e42:	4605      	mov	r5, r0
 8001e44:	6823      	ldr	r3, [r4, #0]
 8001e46:	019a      	lsls	r2, r3, #6
 8001e48:	f53f aea8 	bmi.w	8001b9c <HAL_RCC_OscConfig+0x30>
 8001e4c:	f7ff f852 	bl	8000ef4 <HAL_GetTick>
 8001e50:	1b40      	subs	r0, r0, r5
 8001e52:	2802      	cmp	r0, #2
 8001e54:	d9f6      	bls.n	8001e44 <HAL_RCC_OscConfig+0x2d8>
 8001e56:	e6cb      	b.n	8001bf0 <HAL_RCC_OscConfig+0x84>
 8001e58:	f7ff f84c 	bl	8000ef4 <HAL_GetTick>
 8001e5c:	1bc0      	subs	r0, r0, r7
 8001e5e:	2802      	cmp	r0, #2
 8001e60:	d9d7      	bls.n	8001e12 <HAL_RCC_OscConfig+0x2a6>
 8001e62:	e6c5      	b.n	8001bf0 <HAL_RCC_OscConfig+0x84>
 8001e64:	f7ff f846 	bl	8000ef4 <HAL_GetTick>
 8001e68:	4605      	mov	r5, r0
 8001e6a:	6823      	ldr	r3, [r4, #0]
 8001e6c:	019b      	lsls	r3, r3, #6
 8001e6e:	f57f ae95 	bpl.w	8001b9c <HAL_RCC_OscConfig+0x30>
 8001e72:	f7ff f83f 	bl	8000ef4 <HAL_GetTick>
 8001e76:	1b40      	subs	r0, r0, r5
 8001e78:	2802      	cmp	r0, #2
 8001e7a:	d9f6      	bls.n	8001e6a <HAL_RCC_OscConfig+0x2fe>
 8001e7c:	e6b8      	b.n	8001bf0 <HAL_RCC_OscConfig+0x84>
 8001e7e:	2801      	cmp	r0, #1
 8001e80:	f43f aeb7 	beq.w	8001bf2 <HAL_RCC_OscConfig+0x86>
 8001e84:	6858      	ldr	r0, [r3, #4]
 8001e86:	6a2b      	ldr	r3, [r5, #32]
 8001e88:	f400 3280 	and.w	r2, r0, #65536	; 0x10000
 8001e8c:	429a      	cmp	r2, r3
 8001e8e:	f47f ae71 	bne.w	8001b74 <HAL_RCC_OscConfig+0x8>
 8001e92:	6a6b      	ldr	r3, [r5, #36]	; 0x24
 8001e94:	f400 1070 	and.w	r0, r0, #3932160	; 0x3c0000
 8001e98:	1ac0      	subs	r0, r0, r3
 8001e9a:	bf18      	it	ne
 8001e9c:	2001      	movne	r0, #1
 8001e9e:	e6a8      	b.n	8001bf2 <HAL_RCC_OscConfig+0x86>
 8001ea0:	40021000 	.word	0x40021000
 8001ea4:	42420060 	.word	0x42420060

08001ea8 <HAL_RCC_GetSysClockFreq>:
 8001ea8:	b530      	push	{r4, r5, lr}
 8001eaa:	4b18      	ldr	r3, [pc, #96]	; (8001f0c <HAL_RCC_GetSysClockFreq+0x64>)
 8001eac:	b087      	sub	sp, #28
 8001eae:	ac02      	add	r4, sp, #8
 8001eb0:	f103 0510 	add.w	r5, r3, #16
 8001eb4:	4622      	mov	r2, r4
 8001eb6:	6818      	ldr	r0, [r3, #0]
 8001eb8:	6859      	ldr	r1, [r3, #4]
 8001eba:	3308      	adds	r3, #8
 8001ebc:	c203      	stmia	r2!, {r0, r1}
 8001ebe:	42ab      	cmp	r3, r5
 8001ec0:	4614      	mov	r4, r2
 8001ec2:	d1f7      	bne.n	8001eb4 <HAL_RCC_GetSysClockFreq+0xc>
 8001ec4:	f240 2301 	movw	r3, #513	; 0x201
 8001ec8:	4911      	ldr	r1, [pc, #68]	; (8001f10 <HAL_RCC_GetSysClockFreq+0x68>)
 8001eca:	f8ad 3004 	strh.w	r3, [sp, #4]
 8001ece:	684b      	ldr	r3, [r1, #4]
 8001ed0:	f003 020c 	and.w	r2, r3, #12
 8001ed4:	2a08      	cmp	r2, #8
 8001ed6:	d117      	bne.n	8001f08 <HAL_RCC_GetSysClockFreq+0x60>
 8001ed8:	f3c3 4283 	ubfx	r2, r3, #18, #4
 8001edc:	a806      	add	r0, sp, #24
 8001ede:	4402      	add	r2, r0
 8001ee0:	03db      	lsls	r3, r3, #15
 8001ee2:	f812 2c10 	ldrb.w	r2, [r2, #-16]
 8001ee6:	d50c      	bpl.n	8001f02 <HAL_RCC_GetSysClockFreq+0x5a>
 8001ee8:	684b      	ldr	r3, [r1, #4]
 8001eea:	480a      	ldr	r0, [pc, #40]	; (8001f14 <HAL_RCC_GetSysClockFreq+0x6c>)
 8001eec:	f3c3 4340 	ubfx	r3, r3, #17, #1
 8001ef0:	4350      	muls	r0, r2
 8001ef2:	aa06      	add	r2, sp, #24
 8001ef4:	4413      	add	r3, r2
 8001ef6:	f813 3c14 	ldrb.w	r3, [r3, #-20]
 8001efa:	fbb0 f0f3 	udiv	r0, r0, r3
 8001efe:	b007      	add	sp, #28
 8001f00:	bd30      	pop	{r4, r5, pc}
 8001f02:	4805      	ldr	r0, [pc, #20]	; (8001f18 <HAL_RCC_GetSysClockFreq+0x70>)
 8001f04:	4350      	muls	r0, r2
 8001f06:	e7fa      	b.n	8001efe <HAL_RCC_GetSysClockFreq+0x56>
 8001f08:	4802      	ldr	r0, [pc, #8]	; (8001f14 <HAL_RCC_GetSysClockFreq+0x6c>)
 8001f0a:	e7f8      	b.n	8001efe <HAL_RCC_GetSysClockFreq+0x56>
 8001f0c:	0800464c 	.word	0x0800464c
 8001f10:	40021000 	.word	0x40021000
 8001f14:	007a1200 	.word	0x007a1200
 8001f18:	003d0900 	.word	0x003d0900

08001f1c <HAL_RCC_ClockConfig>:
 8001f1c:	e92d 41f0 	stmdb	sp!, {r4, r5, r6, r7, r8, lr}
 8001f20:	460d      	mov	r5, r1
 8001f22:	4604      	mov	r4, r0
 8001f24:	b910      	cbnz	r0, 8001f2c <HAL_RCC_ClockConfig+0x10>
 8001f26:	2001      	movs	r0, #1
 8001f28:	e8bd 81f0 	ldmia.w	sp!, {r4, r5, r6, r7, r8, pc}
 8001f2c:	4a44      	ldr	r2, [pc, #272]	; (8002040 <HAL_RCC_ClockConfig+0x124>)
 8001f2e:	6813      	ldr	r3, [r2, #0]
 8001f30:	f003 0307 	and.w	r3, r3, #7
 8001f34:	428b      	cmp	r3, r1
 8001f36:	d328      	bcc.n	8001f8a <HAL_RCC_ClockConfig+0x6e>
 8001f38:	6821      	ldr	r1, [r4, #0]
 8001f3a:	078e      	lsls	r6, r1, #30
 8001f3c:	d430      	bmi.n	8001fa0 <HAL_RCC_ClockConfig+0x84>
 8001f3e:	07ca      	lsls	r2, r1, #31
 8001f40:	d443      	bmi.n	8001fca <HAL_RCC_ClockConfig+0xae>
 8001f42:	4a3f      	ldr	r2, [pc, #252]	; (8002040 <HAL_RCC_ClockConfig+0x124>)
 8001f44:	6813      	ldr	r3, [r2, #0]
 8001f46:	f003 0307 	and.w	r3, r3, #7
 8001f4a:	42ab      	cmp	r3, r5
 8001f4c:	d865      	bhi.n	800201a <HAL_RCC_ClockConfig+0xfe>
 8001f4e:	6822      	ldr	r2, [r4, #0]
 8001f50:	4d3c      	ldr	r5, [pc, #240]	; (8002044 <HAL_RCC_ClockConfig+0x128>)
 8001f52:	f012 0f04 	tst.w	r2, #4
 8001f56:	d16c      	bne.n	8002032 <HAL_RCC_ClockConfig+0x116>
 8001f58:	0713      	lsls	r3, r2, #28
 8001f5a:	d506      	bpl.n	8001f6a <HAL_RCC_ClockConfig+0x4e>
 8001f5c:	686b      	ldr	r3, [r5, #4]
 8001f5e:	6922      	ldr	r2, [r4, #16]
 8001f60:	f423 5360 	bic.w	r3, r3, #14336	; 0x3800
 8001f64:	ea43 03c2 	orr.w	r3, r3, r2, lsl #3
 8001f68:	606b      	str	r3, [r5, #4]
 8001f6a:	f7ff ff9d 	bl	8001ea8 <HAL_RCC_GetSysClockFreq>
 8001f6e:	686b      	ldr	r3, [r5, #4]
 8001f70:	4a35      	ldr	r2, [pc, #212]	; (8002048 <HAL_RCC_ClockConfig+0x12c>)
 8001f72:	f3c3 1303 	ubfx	r3, r3, #4, #4
 8001f76:	5cd3      	ldrb	r3, [r2, r3]
 8001f78:	40d8      	lsrs	r0, r3
 8001f7a:	4b34      	ldr	r3, [pc, #208]	; (800204c <HAL_RCC_ClockConfig+0x130>)
 8001f7c:	6018      	str	r0, [r3, #0]
 8001f7e:	4b34      	ldr	r3, [pc, #208]	; (8002050 <HAL_RCC_ClockConfig+0x134>)
 8001f80:	6818      	ldr	r0, [r3, #0]
 8001f82:	f7fe fedb 	bl	8000d3c <HAL_InitTick>
 8001f86:	2000      	movs	r0, #0
 8001f88:	e7ce      	b.n	8001f28 <HAL_RCC_ClockConfig+0xc>
 8001f8a:	6813      	ldr	r3, [r2, #0]
 8001f8c:	f023 0307 	bic.w	r3, r3, #7
 8001f90:	430b      	orrs	r3, r1
 8001f92:	6013      	str	r3, [r2, #0]
 8001f94:	6813      	ldr	r3, [r2, #0]
 8001f96:	f003 0307 	and.w	r3, r3, #7
 8001f9a:	428b      	cmp	r3, r1
 8001f9c:	d1c3      	bne.n	8001f26 <HAL_RCC_ClockConfig+0xa>
 8001f9e:	e7cb      	b.n	8001f38 <HAL_RCC_ClockConfig+0x1c>
 8001fa0:	4b28      	ldr	r3, [pc, #160]	; (8002044 <HAL_RCC_ClockConfig+0x128>)
 8001fa2:	f011 0f04 	tst.w	r1, #4
 8001fa6:	bf1e      	ittt	ne
 8001fa8:	685a      	ldrne	r2, [r3, #4]
 8001faa:	f442 62e0 	orrne.w	r2, r2, #1792	; 0x700
 8001fae:	605a      	strne	r2, [r3, #4]
 8001fb0:	0708      	lsls	r0, r1, #28
 8001fb2:	bf42      	ittt	mi
 8001fb4:	685a      	ldrmi	r2, [r3, #4]
 8001fb6:	f442 5260 	orrmi.w	r2, r2, #14336	; 0x3800
 8001fba:	605a      	strmi	r2, [r3, #4]
 8001fbc:	685a      	ldr	r2, [r3, #4]
 8001fbe:	68a0      	ldr	r0, [r4, #8]
 8001fc0:	f022 02f0 	bic.w	r2, r2, #240	; 0xf0
 8001fc4:	4302      	orrs	r2, r0
 8001fc6:	605a      	str	r2, [r3, #4]
 8001fc8:	e7b9      	b.n	8001f3e <HAL_RCC_ClockConfig+0x22>
 8001fca:	6862      	ldr	r2, [r4, #4]
 8001fcc:	4e1d      	ldr	r6, [pc, #116]	; (8002044 <HAL_RCC_ClockConfig+0x128>)
 8001fce:	2a01      	cmp	r2, #1
 8001fd0:	6833      	ldr	r3, [r6, #0]
 8001fd2:	d11a      	bne.n	800200a <HAL_RCC_ClockConfig+0xee>
 8001fd4:	f413 3f00 	tst.w	r3, #131072	; 0x20000
 8001fd8:	d0a5      	beq.n	8001f26 <HAL_RCC_ClockConfig+0xa>
 8001fda:	6873      	ldr	r3, [r6, #4]
 8001fdc:	f241 3888 	movw	r8, #5000	; 0x1388
 8001fe0:	f023 0303 	bic.w	r3, r3, #3
 8001fe4:	4313      	orrs	r3, r2
 8001fe6:	6073      	str	r3, [r6, #4]
 8001fe8:	f7fe ff84 	bl	8000ef4 <HAL_GetTick>
 8001fec:	4607      	mov	r7, r0
 8001fee:	6873      	ldr	r3, [r6, #4]
 8001ff0:	6862      	ldr	r2, [r4, #4]
 8001ff2:	f003 030c 	and.w	r3, r3, #12
 8001ff6:	ebb3 0f82 	cmp.w	r3, r2, lsl #2
 8001ffa:	d0a2      	beq.n	8001f42 <HAL_RCC_ClockConfig+0x26>
 8001ffc:	f7fe ff7a 	bl	8000ef4 <HAL_GetTick>
 8002000:	1bc0      	subs	r0, r0, r7
 8002002:	4540      	cmp	r0, r8
 8002004:	d9f3      	bls.n	8001fee <HAL_RCC_ClockConfig+0xd2>
 8002006:	2003      	movs	r0, #3
 8002008:	e78e      	b.n	8001f28 <HAL_RCC_ClockConfig+0xc>
 800200a:	2a02      	cmp	r2, #2
 800200c:	d102      	bne.n	8002014 <HAL_RCC_ClockConfig+0xf8>
 800200e:	f013 7f00 	tst.w	r3, #33554432	; 0x2000000
 8002012:	e7e1      	b.n	8001fd8 <HAL_RCC_ClockConfig+0xbc>
 8002014:	f013 0f02 	tst.w	r3, #2
 8002018:	e7de      	b.n	8001fd8 <HAL_RCC_ClockConfig+0xbc>
 800201a:	6813      	ldr	r3, [r2, #0]
 800201c:	f023 0307 	bic.w	r3, r3, #7
 8002020:	432b      	orrs	r3, r5
 8002022:	6013      	str	r3, [r2, #0]
 8002024:	6813      	ldr	r3, [r2, #0]
 8002026:	f003 0307 	and.w	r3, r3, #7
 800202a:	42ab      	cmp	r3, r5
 800202c:	f47f af7b 	bne.w	8001f26 <HAL_RCC_ClockConfig+0xa>
 8002030:	e78d      	b.n	8001f4e <HAL_RCC_ClockConfig+0x32>
 8002032:	686b      	ldr	r3, [r5, #4]
 8002034:	68e1      	ldr	r1, [r4, #12]
 8002036:	f423 63e0 	bic.w	r3, r3, #1792	; 0x700
 800203a:	430b      	orrs	r3, r1
 800203c:	606b      	str	r3, [r5, #4]
 800203e:	e78b      	b.n	8001f58 <HAL_RCC_ClockConfig+0x3c>
 8002040:	40022000 	.word	0x40022000
 8002044:	40021000 	.word	0x40021000
 8002048:	08004778 	.word	0x08004778
 800204c:	20000000 	.word	0x20000000
 8002050:	20000008 	.word	0x20000008

08002054 <HAL_RCC_GetPCLK2Freq>:
 8002054:	4b04      	ldr	r3, [pc, #16]	; (8002068 <HAL_RCC_GetPCLK2Freq+0x14>)
 8002056:	4a05      	ldr	r2, [pc, #20]	; (800206c <HAL_RCC_GetPCLK2Freq+0x18>)
 8002058:	685b      	ldr	r3, [r3, #4]
 800205a:	f3c3 23c2 	ubfx	r3, r3, #11, #3
 800205e:	5cd3      	ldrb	r3, [r2, r3]
 8002060:	4a03      	ldr	r2, [pc, #12]	; (8002070 <HAL_RCC_GetPCLK2Freq+0x1c>)
 8002062:	6810      	ldr	r0, [r2, #0]
 8002064:	40d8      	lsrs	r0, r3
 8002066:	4770      	bx	lr
 8002068:	40021000 	.word	0x40021000
 800206c:	08004788 	.word	0x08004788
 8002070:	20000000 	.word	0x20000000

08002074 <HAL_RCC_GetClockConfig>:
 8002074:	230f      	movs	r3, #15
 8002076:	6003      	str	r3, [r0, #0]
 8002078:	4b0b      	ldr	r3, [pc, #44]	; (80020a8 <HAL_RCC_GetClockConfig+0x34>)
 800207a:	685a      	ldr	r2, [r3, #4]
 800207c:	f002 0203 	and.w	r2, r2, #3
 8002080:	6042      	str	r2, [r0, #4]
 8002082:	685a      	ldr	r2, [r3, #4]
 8002084:	f002 02f0 	and.w	r2, r2, #240	; 0xf0
 8002088:	6082      	str	r2, [r0, #8]
 800208a:	685a      	ldr	r2, [r3, #4]
 800208c:	f402 62e0 	and.w	r2, r2, #1792	; 0x700
 8002090:	60c2      	str	r2, [r0, #12]
 8002092:	685b      	ldr	r3, [r3, #4]
 8002094:	08db      	lsrs	r3, r3, #3
 8002096:	f403 63e0 	and.w	r3, r3, #1792	; 0x700
 800209a:	6103      	str	r3, [r0, #16]
 800209c:	4b03      	ldr	r3, [pc, #12]	; (80020ac <HAL_RCC_GetClockConfig+0x38>)
 800209e:	681b      	ldr	r3, [r3, #0]
 80020a0:	f003 0307 	and.w	r3, r3, #7
 80020a4:	600b      	str	r3, [r1, #0]
 80020a6:	4770      	bx	lr
 80020a8:	40021000 	.word	0x40021000
 80020ac:	40022000 	.word	0x40022000

080020b0 <HAL_RCCEx_PeriphCLKConfig>:
 80020b0:	6803      	ldr	r3, [r0, #0]
 80020b2:	e92d 41f3 	stmdb	sp!, {r0, r1, r4, r5, r6, r7, r8, lr}
 80020b6:	07d9      	lsls	r1, r3, #31
 80020b8:	4605      	mov	r5, r0
 80020ba:	d520      	bpl.n	80020fe <HAL_RCCEx_PeriphCLKConfig+0x4e>
 80020bc:	4c35      	ldr	r4, [pc, #212]	; (8002194 <HAL_RCCEx_PeriphCLKConfig+0xe4>)
 80020be:	69e3      	ldr	r3, [r4, #28]
 80020c0:	00da      	lsls	r2, r3, #3
 80020c2:	d432      	bmi.n	800212a <HAL_RCCEx_PeriphCLKConfig+0x7a>
 80020c4:	2701      	movs	r7, #1
 80020c6:	69e3      	ldr	r3, [r4, #28]
 80020c8:	f043 5380 	orr.w	r3, r3, #268435456	; 0x10000000
 80020cc:	61e3      	str	r3, [r4, #28]
 80020ce:	69e3      	ldr	r3, [r4, #28]
 80020d0:	f003 5380 	and.w	r3, r3, #268435456	; 0x10000000
 80020d4:	9301      	str	r3, [sp, #4]
 80020d6:	9b01      	ldr	r3, [sp, #4]
 80020d8:	4e2f      	ldr	r6, [pc, #188]	; (8002198 <HAL_RCCEx_PeriphCLKConfig+0xe8>)
 80020da:	6833      	ldr	r3, [r6, #0]
 80020dc:	05db      	lsls	r3, r3, #23
 80020de:	d526      	bpl.n	800212e <HAL_RCCEx_PeriphCLKConfig+0x7e>
 80020e0:	6a23      	ldr	r3, [r4, #32]
 80020e2:	f413 7340 	ands.w	r3, r3, #768	; 0x300
 80020e6:	d136      	bne.n	8002156 <HAL_RCCEx_PeriphCLKConfig+0xa6>
 80020e8:	6a23      	ldr	r3, [r4, #32]
 80020ea:	686a      	ldr	r2, [r5, #4]
 80020ec:	f423 7340 	bic.w	r3, r3, #768	; 0x300
 80020f0:	4313      	orrs	r3, r2
 80020f2:	6223      	str	r3, [r4, #32]
 80020f4:	b11f      	cbz	r7, 80020fe <HAL_RCCEx_PeriphCLKConfig+0x4e>
 80020f6:	69e3      	ldr	r3, [r4, #28]
 80020f8:	f023 5380 	bic.w	r3, r3, #268435456	; 0x10000000
 80020fc:	61e3      	str	r3, [r4, #28]
 80020fe:	6828      	ldr	r0, [r5, #0]
 8002100:	0783      	lsls	r3, r0, #30
 8002102:	d506      	bpl.n	8002112 <HAL_RCCEx_PeriphCLKConfig+0x62>
 8002104:	4a23      	ldr	r2, [pc, #140]	; (8002194 <HAL_RCCEx_PeriphCLKConfig+0xe4>)
 8002106:	68a9      	ldr	r1, [r5, #8]
 8002108:	6853      	ldr	r3, [r2, #4]
 800210a:	f423 4340 	bic.w	r3, r3, #49152	; 0xc000
 800210e:	430b      	orrs	r3, r1
 8002110:	6053      	str	r3, [r2, #4]
 8002112:	f010 0010 	ands.w	r0, r0, #16
 8002116:	d01b      	beq.n	8002150 <HAL_RCCEx_PeriphCLKConfig+0xa0>
 8002118:	4a1e      	ldr	r2, [pc, #120]	; (8002194 <HAL_RCCEx_PeriphCLKConfig+0xe4>)
 800211a:	6969      	ldr	r1, [r5, #20]
 800211c:	6853      	ldr	r3, [r2, #4]
 800211e:	2000      	movs	r0, #0
 8002120:	f423 0380 	bic.w	r3, r3, #4194304	; 0x400000
 8002124:	430b      	orrs	r3, r1
 8002126:	6053      	str	r3, [r2, #4]
 8002128:	e012      	b.n	8002150 <HAL_RCCEx_PeriphCLKConfig+0xa0>
 800212a:	2700      	movs	r7, #0
 800212c:	e7d4      	b.n	80020d8 <HAL_RCCEx_PeriphCLKConfig+0x28>
 800212e:	6833      	ldr	r3, [r6, #0]
 8002130:	f443 7380 	orr.w	r3, r3, #256	; 0x100
 8002134:	6033      	str	r3, [r6, #0]
 8002136:	f7fe fedd 	bl	8000ef4 <HAL_GetTick>
 800213a:	4680      	mov	r8, r0
 800213c:	6833      	ldr	r3, [r6, #0]
 800213e:	05d8      	lsls	r0, r3, #23
 8002140:	d4ce      	bmi.n	80020e0 <HAL_RCCEx_PeriphCLKConfig+0x30>
 8002142:	f7fe fed7 	bl	8000ef4 <HAL_GetTick>
 8002146:	eba0 0008 	sub.w	r0, r0, r8
 800214a:	2864      	cmp	r0, #100	; 0x64
 800214c:	d9f6      	bls.n	800213c <HAL_RCCEx_PeriphCLKConfig+0x8c>
 800214e:	2003      	movs	r0, #3
 8002150:	b002      	add	sp, #8
 8002152:	e8bd 81f0 	ldmia.w	sp!, {r4, r5, r6, r7, r8, pc}
 8002156:	686a      	ldr	r2, [r5, #4]
 8002158:	f402 7240 	and.w	r2, r2, #768	; 0x300
 800215c:	429a      	cmp	r2, r3
 800215e:	d0c3      	beq.n	80020e8 <HAL_RCCEx_PeriphCLKConfig+0x38>
 8002160:	2001      	movs	r0, #1
 8002162:	4a0e      	ldr	r2, [pc, #56]	; (800219c <HAL_RCCEx_PeriphCLKConfig+0xec>)
 8002164:	6a23      	ldr	r3, [r4, #32]
 8002166:	6010      	str	r0, [r2, #0]
 8002168:	2000      	movs	r0, #0
 800216a:	f423 7140 	bic.w	r1, r3, #768	; 0x300
 800216e:	6010      	str	r0, [r2, #0]
 8002170:	6221      	str	r1, [r4, #32]
 8002172:	07d9      	lsls	r1, r3, #31
 8002174:	d5b8      	bpl.n	80020e8 <HAL_RCCEx_PeriphCLKConfig+0x38>
 8002176:	f7fe febd 	bl	8000ef4 <HAL_GetTick>
 800217a:	f241 3888 	movw	r8, #5000	; 0x1388
 800217e:	4606      	mov	r6, r0
 8002180:	6a23      	ldr	r3, [r4, #32]
 8002182:	079a      	lsls	r2, r3, #30
 8002184:	d4b0      	bmi.n	80020e8 <HAL_RCCEx_PeriphCLKConfig+0x38>
 8002186:	f7fe feb5 	bl	8000ef4 <HAL_GetTick>
 800218a:	1b80      	subs	r0, r0, r6
 800218c:	4540      	cmp	r0, r8
 800218e:	d9f7      	bls.n	8002180 <HAL_RCCEx_PeriphCLKConfig+0xd0>
 8002190:	e7dd      	b.n	800214e <HAL_RCCEx_PeriphCLKConfig+0x9e>
 8002192:	bf00      	nop
 8002194:	40021000 	.word	0x40021000
 8002198:	40007000 	.word	0x40007000
 800219c:	42420440 	.word	0x42420440

080021a0 <HAL_TIM_Base_MspInit>:
 80021a0:	4770      	bx	lr
	...

080021a4 <HAL_TIM_Base_Start_IT>:
 80021a4:	f890 303d 	ldrb.w	r3, [r0, #61]	; 0x3d
 80021a8:	2b01      	cmp	r3, #1
 80021aa:	d128      	bne.n	80021fe <HAL_TIM_Base_Start_IT+0x5a>
 80021ac:	2302      	movs	r3, #2
 80021ae:	f880 303d 	strb.w	r3, [r0, #61]	; 0x3d
 80021b2:	6803      	ldr	r3, [r0, #0]
 80021b4:	68da      	ldr	r2, [r3, #12]
 80021b6:	f042 0201 	orr.w	r2, r2, #1
 80021ba:	60da      	str	r2, [r3, #12]
 80021bc:	4a11      	ldr	r2, [pc, #68]	; (8002204 <HAL_TIM_Base_Start_IT+0x60>)
 80021be:	4293      	cmp	r3, r2
 80021c0:	d012      	beq.n	80021e8 <HAL_TIM_Base_Start_IT+0x44>
 80021c2:	f502 6200 	add.w	r2, r2, #2048	; 0x800
 80021c6:	4293      	cmp	r3, r2
 80021c8:	d00e      	beq.n	80021e8 <HAL_TIM_Base_Start_IT+0x44>
 80021ca:	f1b3 4f80 	cmp.w	r3, #1073741824	; 0x40000000
 80021ce:	d00b      	beq.n	80021e8 <HAL_TIM_Base_Start_IT+0x44>
 80021d0:	f5a2 3298 	sub.w	r2, r2, #77824	; 0x13000
 80021d4:	4293      	cmp	r3, r2
 80021d6:	d007      	beq.n	80021e8 <HAL_TIM_Base_Start_IT+0x44>
 80021d8:	f502 6280 	add.w	r2, r2, #1024	; 0x400
 80021dc:	4293      	cmp	r3, r2
 80021de:	d003      	beq.n	80021e8 <HAL_TIM_Base_Start_IT+0x44>
 80021e0:	f502 6280 	add.w	r2, r2, #1024	; 0x400
 80021e4:	4293      	cmp	r3, r2
 80021e6:	d104      	bne.n	80021f2 <HAL_TIM_Base_Start_IT+0x4e>
 80021e8:	689a      	ldr	r2, [r3, #8]
 80021ea:	f002 0207 	and.w	r2, r2, #7
 80021ee:	2a06      	cmp	r2, #6
 80021f0:	d003      	beq.n	80021fa <HAL_TIM_Base_Start_IT+0x56>
 80021f2:	681a      	ldr	r2, [r3, #0]
 80021f4:	f042 0201 	orr.w	r2, r2, #1
 80021f8:	601a      	str	r2, [r3, #0]
 80021fa:	2000      	movs	r0, #0
 80021fc:	4770      	bx	lr
 80021fe:	2001      	movs	r0, #1
 8002200:	4770      	bx	lr
 8002202:	bf00      	nop
 8002204:	40012c00 	.word	0x40012c00

08002208 <HAL_TIM_OC_DelayElapsedCallback>:
 8002208:	4770      	bx	lr

0800220a <HAL_TIM_IC_CaptureCallback>:
 800220a:	4770      	bx	lr

0800220c <HAL_TIM_PWM_PulseFinishedCallback>:
 800220c:	4770      	bx	lr

0800220e <HAL_TIM_TriggerCallback>:
 800220e:	4770      	bx	lr

08002210 <HAL_TIM_IRQHandler>:
 8002210:	6803      	ldr	r3, [r0, #0]
 8002212:	b510      	push	{r4, lr}
 8002214:	691a      	ldr	r2, [r3, #16]
 8002216:	4604      	mov	r4, r0
 8002218:	0791      	lsls	r1, r2, #30
 800221a:	d50e      	bpl.n	800223a <HAL_TIM_IRQHandler+0x2a>
 800221c:	68da      	ldr	r2, [r3, #12]
 800221e:	0792      	lsls	r2, r2, #30
 8002220:	d50b      	bpl.n	800223a <HAL_TIM_IRQHandler+0x2a>
 8002222:	f06f 0202 	mvn.w	r2, #2
 8002226:	611a      	str	r2, [r3, #16]
 8002228:	2201      	movs	r2, #1
 800222a:	699b      	ldr	r3, [r3, #24]
 800222c:	7702      	strb	r2, [r0, #28]
 800222e:	079b      	lsls	r3, r3, #30
 8002230:	d077      	beq.n	8002322 <HAL_TIM_IRQHandler+0x112>
 8002232:	f7ff ffea 	bl	800220a <HAL_TIM_IC_CaptureCallback>
 8002236:	2300      	movs	r3, #0
 8002238:	7723      	strb	r3, [r4, #28]
 800223a:	6823      	ldr	r3, [r4, #0]
 800223c:	691a      	ldr	r2, [r3, #16]
 800223e:	0750      	lsls	r0, r2, #29
 8002240:	d510      	bpl.n	8002264 <HAL_TIM_IRQHandler+0x54>
 8002242:	68da      	ldr	r2, [r3, #12]
 8002244:	0751      	lsls	r1, r2, #29
 8002246:	d50d      	bpl.n	8002264 <HAL_TIM_IRQHandler+0x54>
 8002248:	f06f 0204 	mvn.w	r2, #4
 800224c:	611a      	str	r2, [r3, #16]
 800224e:	2202      	movs	r2, #2
 8002250:	699b      	ldr	r3, [r3, #24]
 8002252:	7722      	strb	r2, [r4, #28]
 8002254:	f413 7f40 	tst.w	r3, #768	; 0x300
 8002258:	4620      	mov	r0, r4
 800225a:	d068      	beq.n	800232e <HAL_TIM_IRQHandler+0x11e>
 800225c:	f7ff ffd5 	bl	800220a <HAL_TIM_IC_CaptureCallback>
 8002260:	2300      	movs	r3, #0
 8002262:	7723      	strb	r3, [r4, #28]
 8002264:	6823      	ldr	r3, [r4, #0]
 8002266:	691a      	ldr	r2, [r3, #16]
 8002268:	0712      	lsls	r2, r2, #28
 800226a:	d50f      	bpl.n	800228c <HAL_TIM_IRQHandler+0x7c>
 800226c:	68da      	ldr	r2, [r3, #12]
 800226e:	0710      	lsls	r0, r2, #28
 8002270:	d50c      	bpl.n	800228c <HAL_TIM_IRQHandler+0x7c>
 8002272:	f06f 0208 	mvn.w	r2, #8
 8002276:	611a      	str	r2, [r3, #16]
 8002278:	2204      	movs	r2, #4
 800227a:	69db      	ldr	r3, [r3, #28]
 800227c:	7722      	strb	r2, [r4, #28]
 800227e:	0799      	lsls	r1, r3, #30
 8002280:	4620      	mov	r0, r4
 8002282:	d05a      	beq.n	800233a <HAL_TIM_IRQHandler+0x12a>
 8002284:	f7ff ffc1 	bl	800220a <HAL_TIM_IC_CaptureCallback>
 8002288:	2300      	movs	r3, #0
 800228a:	7723      	strb	r3, [r4, #28]
 800228c:	6823      	ldr	r3, [r4, #0]
 800228e:	691a      	ldr	r2, [r3, #16]
 8002290:	06d2      	lsls	r2, r2, #27
 8002292:	d510      	bpl.n	80022b6 <HAL_TIM_IRQHandler+0xa6>
 8002294:	68da      	ldr	r2, [r3, #12]
 8002296:	06d0      	lsls	r0, r2, #27
 8002298:	d50d      	bpl.n	80022b6 <HAL_TIM_IRQHandler+0xa6>
 800229a:	f06f 0210 	mvn.w	r2, #16
 800229e:	611a      	str	r2, [r3, #16]
 80022a0:	2208      	movs	r2, #8
 80022a2:	69db      	ldr	r3, [r3, #28]
 80022a4:	7722      	strb	r2, [r4, #28]
 80022a6:	f413 7f40 	tst.w	r3, #768	; 0x300
 80022aa:	4620      	mov	r0, r4
 80022ac:	d04b      	beq.n	8002346 <HAL_TIM_IRQHandler+0x136>
 80022ae:	f7ff ffac 	bl	800220a <HAL_TIM_IC_CaptureCallback>
 80022b2:	2300      	movs	r3, #0
 80022b4:	7723      	strb	r3, [r4, #28]
 80022b6:	6823      	ldr	r3, [r4, #0]
 80022b8:	691a      	ldr	r2, [r3, #16]
 80022ba:	07d1      	lsls	r1, r2, #31
 80022bc:	d508      	bpl.n	80022d0 <HAL_TIM_IRQHandler+0xc0>
 80022be:	68da      	ldr	r2, [r3, #12]
 80022c0:	07d2      	lsls	r2, r2, #31
 80022c2:	d505      	bpl.n	80022d0 <HAL_TIM_IRQHandler+0xc0>
 80022c4:	f06f 0201 	mvn.w	r2, #1
 80022c8:	4620      	mov	r0, r4
 80022ca:	611a      	str	r2, [r3, #16]
 80022cc:	f7fe fd02 	bl	8000cd4 <HAL_TIM_PeriodElapsedCallback>
 80022d0:	6823      	ldr	r3, [r4, #0]
 80022d2:	691a      	ldr	r2, [r3, #16]
 80022d4:	0610      	lsls	r0, r2, #24
 80022d6:	d508      	bpl.n	80022ea <HAL_TIM_IRQHandler+0xda>
 80022d8:	68da      	ldr	r2, [r3, #12]
 80022da:	0611      	lsls	r1, r2, #24
 80022dc:	d505      	bpl.n	80022ea <HAL_TIM_IRQHandler+0xda>
 80022de:	f06f 0280 	mvn.w	r2, #128	; 0x80
 80022e2:	4620      	mov	r0, r4
 80022e4:	611a      	str	r2, [r3, #16]
 80022e6:	f000 f8ae 	bl	8002446 <HAL_TIMEx_BreakCallback>
 80022ea:	6823      	ldr	r3, [r4, #0]
 80022ec:	691a      	ldr	r2, [r3, #16]
 80022ee:	0652      	lsls	r2, r2, #25
 80022f0:	d508      	bpl.n	8002304 <HAL_TIM_IRQHandler+0xf4>
 80022f2:	68da      	ldr	r2, [r3, #12]
 80022f4:	0650      	lsls	r0, r2, #25
 80022f6:	d505      	bpl.n	8002304 <HAL_TIM_IRQHandler+0xf4>
 80022f8:	f06f 0240 	mvn.w	r2, #64	; 0x40
 80022fc:	4620      	mov	r0, r4
 80022fe:	611a      	str	r2, [r3, #16]
 8002300:	f7ff ff85 	bl	800220e <HAL_TIM_TriggerCallback>
 8002304:	6823      	ldr	r3, [r4, #0]
 8002306:	691a      	ldr	r2, [r3, #16]
 8002308:	0691      	lsls	r1, r2, #26
 800230a:	d522      	bpl.n	8002352 <HAL_TIM_IRQHandler+0x142>
 800230c:	68da      	ldr	r2, [r3, #12]
 800230e:	0692      	lsls	r2, r2, #26
 8002310:	d51f      	bpl.n	8002352 <HAL_TIM_IRQHandler+0x142>
 8002312:	f06f 0220 	mvn.w	r2, #32
 8002316:	4620      	mov	r0, r4
 8002318:	e8bd 4010 	ldmia.w	sp!, {r4, lr}
 800231c:	611a      	str	r2, [r3, #16]
 800231e:	f000 b891 	b.w	8002444 <HAL_TIMEx_CommutCallback>
 8002322:	f7ff ff71 	bl	8002208 <HAL_TIM_OC_DelayElapsedCallback>
 8002326:	4620      	mov	r0, r4
 8002328:	f7ff ff70 	bl	800220c <HAL_TIM_PWM_PulseFinishedCallback>
 800232c:	e783      	b.n	8002236 <HAL_TIM_IRQHandler+0x26>
 800232e:	f7ff ff6b 	bl	8002208 <HAL_TIM_OC_DelayElapsedCallback>
 8002332:	4620      	mov	r0, r4
 8002334:	f7ff ff6a 	bl	800220c <HAL_TIM_PWM_PulseFinishedCallback>
 8002338:	e792      	b.n	8002260 <HAL_TIM_IRQHandler+0x50>
 800233a:	f7ff ff65 	bl	8002208 <HAL_TIM_OC_DelayElapsedCallback>
 800233e:	4620      	mov	r0, r4
 8002340:	f7ff ff64 	bl	800220c <HAL_TIM_PWM_PulseFinishedCallback>
 8002344:	e7a0      	b.n	8002288 <HAL_TIM_IRQHandler+0x78>
 8002346:	f7ff ff5f 	bl	8002208 <HAL_TIM_OC_DelayElapsedCallback>
 800234a:	4620      	mov	r0, r4
 800234c:	f7ff ff5e 	bl	800220c <HAL_TIM_PWM_PulseFinishedCallback>
 8002350:	e7af      	b.n	80022b2 <HAL_TIM_IRQHandler+0xa2>
 8002352:	bd10      	pop	{r4, pc}

08002354 <TIM_Base_SetConfig>:
 8002354:	4a24      	ldr	r2, [pc, #144]	; (80023e8 <TIM_Base_SetConfig+0x94>)
 8002356:	6803      	ldr	r3, [r0, #0]
 8002358:	4290      	cmp	r0, r2
 800235a:	d012      	beq.n	8002382 <TIM_Base_SetConfig+0x2e>
 800235c:	f502 6200 	add.w	r2, r2, #2048	; 0x800
 8002360:	4290      	cmp	r0, r2
 8002362:	d00e      	beq.n	8002382 <TIM_Base_SetConfig+0x2e>
 8002364:	f1b0 4f80 	cmp.w	r0, #1073741824	; 0x40000000
 8002368:	d00b      	beq.n	8002382 <TIM_Base_SetConfig+0x2e>
 800236a:	f5a2 3298 	sub.w	r2, r2, #77824	; 0x13000
 800236e:	4290      	cmp	r0, r2
 8002370:	d007      	beq.n	8002382 <TIM_Base_SetConfig+0x2e>
 8002372:	f502 6280 	add.w	r2, r2, #1024	; 0x400
 8002376:	4290      	cmp	r0, r2
 8002378:	d003      	beq.n	8002382 <TIM_Base_SetConfig+0x2e>
 800237a:	f502 6280 	add.w	r2, r2, #1024	; 0x400
 800237e:	4290      	cmp	r0, r2
 8002380:	d11d      	bne.n	80023be <TIM_Base_SetConfig+0x6a>
 8002382:	684a      	ldr	r2, [r1, #4]
 8002384:	f023 0370 	bic.w	r3, r3, #112	; 0x70
 8002388:	4313      	orrs	r3, r2
 800238a:	4a17      	ldr	r2, [pc, #92]	; (80023e8 <TIM_Base_SetConfig+0x94>)
 800238c:	4290      	cmp	r0, r2
 800238e:	d012      	beq.n	80023b6 <TIM_Base_SetConfig+0x62>
 8002390:	f502 6200 	add.w	r2, r2, #2048	; 0x800
 8002394:	4290      	cmp	r0, r2
 8002396:	d00e      	beq.n	80023b6 <TIM_Base_SetConfig+0x62>
 8002398:	f1b0 4f80 	cmp.w	r0, #1073741824	; 0x40000000
 800239c:	d00b      	beq.n	80023b6 <TIM_Base_SetConfig+0x62>
 800239e:	f5a2 3298 	sub.w	r2, r2, #77824	; 0x13000
 80023a2:	4290      	cmp	r0, r2
 80023a4:	d007      	beq.n	80023b6 <TIM_Base_SetConfig+0x62>
 80023a6:	f502 6280 	add.w	r2, r2, #1024	; 0x400
 80023aa:	4290      	cmp	r0, r2
 80023ac:	d003      	beq.n	80023b6 <TIM_Base_SetConfig+0x62>
 80023ae:	f502 6280 	add.w	r2, r2, #1024	; 0x400
 80023b2:	4290      	cmp	r0, r2
 80023b4:	d103      	bne.n	80023be <TIM_Base_SetConfig+0x6a>
 80023b6:	68ca      	ldr	r2, [r1, #12]
 80023b8:	f423 7340 	bic.w	r3, r3, #768	; 0x300
 80023bc:	4313      	orrs	r3, r2
 80023be:	694a      	ldr	r2, [r1, #20]
 80023c0:	f023 0380 	bic.w	r3, r3, #128	; 0x80
 80023c4:	4313      	orrs	r3, r2
 80023c6:	6003      	str	r3, [r0, #0]
 80023c8:	688b      	ldr	r3, [r1, #8]
 80023ca:	62c3      	str	r3, [r0, #44]	; 0x2c
 80023cc:	680b      	ldr	r3, [r1, #0]
 80023ce:	6283      	str	r3, [r0, #40]	; 0x28
 80023d0:	4b05      	ldr	r3, [pc, #20]	; (80023e8 <TIM_Base_SetConfig+0x94>)
 80023d2:	4298      	cmp	r0, r3
 80023d4:	d003      	beq.n	80023de <TIM_Base_SetConfig+0x8a>
 80023d6:	f503 6300 	add.w	r3, r3, #2048	; 0x800
 80023da:	4298      	cmp	r0, r3
 80023dc:	d101      	bne.n	80023e2 <TIM_Base_SetConfig+0x8e>
 80023de:	690b      	ldr	r3, [r1, #16]
 80023e0:	6303      	str	r3, [r0, #48]	; 0x30
 80023e2:	2301      	movs	r3, #1
 80023e4:	6143      	str	r3, [r0, #20]
 80023e6:	4770      	bx	lr
 80023e8:	40012c00 	.word	0x40012c00

080023ec <HAL_TIM_Base_Init>:
 80023ec:	b510      	push	{r4, lr}
 80023ee:	4604      	mov	r4, r0
 80023f0:	b330      	cbz	r0, 8002440 <HAL_TIM_Base_Init+0x54>
 80023f2:	f890 303d 	ldrb.w	r3, [r0, #61]	; 0x3d
 80023f6:	f003 02ff 	and.w	r2, r3, #255	; 0xff
 80023fa:	b91b      	cbnz	r3, 8002404 <HAL_TIM_Base_Init+0x18>
 80023fc:	f880 203c 	strb.w	r2, [r0, #60]	; 0x3c
 8002400:	f7ff fece 	bl	80021a0 <HAL_TIM_Base_MspInit>
 8002404:	2302      	movs	r3, #2
 8002406:	6820      	ldr	r0, [r4, #0]
 8002408:	f884 303d 	strb.w	r3, [r4, #61]	; 0x3d
 800240c:	1d21      	adds	r1, r4, #4
 800240e:	f7ff ffa1 	bl	8002354 <TIM_Base_SetConfig>
 8002412:	2301      	movs	r3, #1
 8002414:	2000      	movs	r0, #0
 8002416:	f884 3046 	strb.w	r3, [r4, #70]	; 0x46
 800241a:	f884 303e 	strb.w	r3, [r4, #62]	; 0x3e
 800241e:	f884 303f 	strb.w	r3, [r4, #63]	; 0x3f
 8002422:	f884 3040 	strb.w	r3, [r4, #64]	; 0x40
 8002426:	f884 3041 	strb.w	r3, [r4, #65]	; 0x41
 800242a:	f884 3042 	strb.w	r3, [r4, #66]	; 0x42
 800242e:	f884 3043 	strb.w	r3, [r4, #67]	; 0x43
 8002432:	f884 3044 	strb.w	r3, [r4, #68]	; 0x44
 8002436:	f884 3045 	strb.w	r3, [r4, #69]	; 0x45
 800243a:	f884 303d 	strb.w	r3, [r4, #61]	; 0x3d
 800243e:	bd10      	pop	{r4, pc}
 8002440:	2001      	movs	r0, #1
 8002442:	e7fc      	b.n	800243e <HAL_TIM_Base_Init+0x52>

08002444 <HAL_TIMEx_CommutCallback>:
 8002444:	4770      	bx	lr

08002446 <HAL_TIMEx_BreakCallback>:
 8002446:	4770      	bx	lr

08002448 <TimerCallback>:
 8002448:	b510      	push	{r4, lr}
 800244a:	f001 fe57 	bl	80040fc <pvTimerGetTimerID>
 800244e:	b120      	cbz	r0, 800245a <TimerCallback+0x12>
 8002450:	e9d0 3000 	ldrd	r3, r0, [r0]
 8002454:	e8bd 4010 	ldmia.w	sp!, {r4, lr}
 8002458:	4718      	bx	r3
 800245a:	bd10      	pop	{r4, pc}

0800245c <osKernelInitialize>:
 800245c:	f3ef 8305 	mrs	r3, IPSR
 8002460:	b113      	cbz	r3, 8002468 <osKernelInitialize+0xc>
 8002462:	f06f 0005 	mvn.w	r0, #5
 8002466:	4770      	bx	lr
 8002468:	f3ef 8310 	mrs	r3, PRIMASK
 800246c:	2b00      	cmp	r3, #0
 800246e:	d1f8      	bne.n	8002462 <osKernelInitialize+0x6>
 8002470:	4b07      	ldr	r3, [pc, #28]	; (8002490 <osKernelInitialize+0x34>)
 8002472:	6818      	ldr	r0, [r3, #0]
 8002474:	2802      	cmp	r0, #2
 8002476:	d106      	bne.n	8002486 <osKernelInitialize+0x2a>
 8002478:	f3ef 8311 	mrs	r3, BASEPRI
 800247c:	2b00      	cmp	r3, #0
 800247e:	d1f0      	bne.n	8002462 <osKernelInitialize+0x6>
 8002480:	f04f 30ff 	mov.w	r0, #4294967295
 8002484:	4770      	bx	lr
 8002486:	2800      	cmp	r0, #0
 8002488:	d1fa      	bne.n	8002480 <osKernelInitialize+0x24>
 800248a:	2201      	movs	r2, #1
 800248c:	601a      	str	r2, [r3, #0]
 800248e:	4770      	bx	lr
 8002490:	20000288 	.word	0x20000288

08002494 <osKernelStart>:
 8002494:	b510      	push	{r4, lr}
 8002496:	f3ef 8305 	mrs	r3, IPSR
 800249a:	b113      	cbz	r3, 80024a2 <osKernelStart+0xe>
 800249c:	f06f 0005 	mvn.w	r0, #5
 80024a0:	bd10      	pop	{r4, pc}
 80024a2:	f3ef 8410 	mrs	r4, PRIMASK
 80024a6:	2c00      	cmp	r4, #0
 80024a8:	d1f8      	bne.n	800249c <osKernelStart+0x8>
 80024aa:	4b09      	ldr	r3, [pc, #36]	; (80024d0 <osKernelStart+0x3c>)
 80024ac:	681a      	ldr	r2, [r3, #0]
 80024ae:	2a02      	cmp	r2, #2
 80024b0:	d106      	bne.n	80024c0 <osKernelStart+0x2c>
 80024b2:	f3ef 8311 	mrs	r3, BASEPRI
 80024b6:	2b00      	cmp	r3, #0
 80024b8:	d1f0      	bne.n	800249c <osKernelStart+0x8>
 80024ba:	f04f 30ff 	mov.w	r0, #4294967295
 80024be:	e7ef      	b.n	80024a0 <osKernelStart+0xc>
 80024c0:	2a01      	cmp	r2, #1
 80024c2:	d1fa      	bne.n	80024ba <osKernelStart+0x26>
 80024c4:	2202      	movs	r2, #2
 80024c6:	601a      	str	r2, [r3, #0]
 80024c8:	f000 ffe2 	bl	8003490 <vTaskStartScheduler>
 80024cc:	4620      	mov	r0, r4
 80024ce:	e7e7      	b.n	80024a0 <osKernelStart+0xc>
 80024d0:	20000288 	.word	0x20000288

080024d4 <osThreadNew>:
 80024d4:	b5f0      	push	{r4, r5, r6, r7, lr}
 80024d6:	4614      	mov	r4, r2
 80024d8:	2200      	movs	r2, #0
 80024da:	b087      	sub	sp, #28
 80024dc:	460b      	mov	r3, r1
 80024de:	9205      	str	r2, [sp, #20]
 80024e0:	f3ef 8205 	mrs	r2, IPSR
 80024e4:	bb62      	cbnz	r2, 8002540 <osThreadNew+0x6c>
 80024e6:	f3ef 8210 	mrs	r2, PRIMASK
 80024ea:	bb4a      	cbnz	r2, 8002540 <osThreadNew+0x6c>
 80024ec:	4a26      	ldr	r2, [pc, #152]	; (8002588 <osThreadNew+0xb4>)
 80024ee:	6812      	ldr	r2, [r2, #0]
 80024f0:	2a02      	cmp	r2, #2
 80024f2:	d102      	bne.n	80024fa <osThreadNew+0x26>
 80024f4:	f3ef 8211 	mrs	r2, BASEPRI
 80024f8:	bb12      	cbnz	r2, 8002540 <osThreadNew+0x6c>
 80024fa:	b308      	cbz	r0, 8002540 <osThreadNew+0x6c>
 80024fc:	2200      	movs	r2, #0
 80024fe:	f88d 2013 	strb.w	r2, [sp, #19]
 8002502:	2c00      	cmp	r4, #0
 8002504:	d039      	beq.n	800257a <osThreadNew+0xa6>
 8002506:	6821      	ldr	r1, [r4, #0]
 8002508:	b909      	cbnz	r1, 800250e <osThreadNew+0x3a>
 800250a:	f10d 0113 	add.w	r1, sp, #19
 800250e:	69a5      	ldr	r5, [r4, #24]
 8002510:	2d00      	cmp	r5, #0
 8002512:	bf08      	it	eq
 8002514:	2518      	moveq	r5, #24
 8002516:	1e6a      	subs	r2, r5, #1
 8002518:	2a37      	cmp	r2, #55	; 0x37
 800251a:	462f      	mov	r7, r5
 800251c:	d832      	bhi.n	8002584 <osThreadNew+0xb0>
 800251e:	6862      	ldr	r2, [r4, #4]
 8002520:	07d2      	lsls	r2, r2, #31
 8002522:	d42f      	bmi.n	8002584 <osThreadNew+0xb0>
 8002524:	6966      	ldr	r6, [r4, #20]
 8002526:	b176      	cbz	r6, 8002546 <osThreadNew+0x72>
 8002528:	08b2      	lsrs	r2, r6, #2
 800252a:	e9d4 ce02 	ldrd	ip, lr, [r4, #8]
 800252e:	f1bc 0f00 	cmp.w	ip, #0
 8002532:	d00a      	beq.n	800254a <osThreadNew+0x76>
 8002534:	f1be 0f5b 	cmp.w	lr, #91	; 0x5b
 8002538:	d902      	bls.n	8002540 <osThreadNew+0x6c>
 800253a:	6924      	ldr	r4, [r4, #16]
 800253c:	b104      	cbz	r4, 8002540 <osThreadNew+0x6c>
 800253e:	b9ae      	cbnz	r6, 800256c <osThreadNew+0x98>
 8002540:	9805      	ldr	r0, [sp, #20]
 8002542:	b007      	add	sp, #28
 8002544:	bdf0      	pop	{r4, r5, r6, r7, pc}
 8002546:	2280      	movs	r2, #128	; 0x80
 8002548:	e7ef      	b.n	800252a <osThreadNew+0x56>
 800254a:	f1be 0f00 	cmp.w	lr, #0
 800254e:	d1f7      	bne.n	8002540 <osThreadNew+0x6c>
 8002550:	6924      	ldr	r4, [r4, #16]
 8002552:	2c00      	cmp	r4, #0
 8002554:	d1f4      	bne.n	8002540 <osThreadNew+0x6c>
 8002556:	ac05      	add	r4, sp, #20
 8002558:	e9cd 7400 	strd	r7, r4, [sp]
 800255c:	b292      	uxth	r2, r2
 800255e:	f000 ff6a 	bl	8003436 <xTaskCreate>
 8002562:	2801      	cmp	r0, #1
 8002564:	bf1c      	itt	ne
 8002566:	2300      	movne	r3, #0
 8002568:	9305      	strne	r3, [sp, #20]
 800256a:	e7e9      	b.n	8002540 <osThreadNew+0x6c>
 800256c:	e9cd 4c01 	strd	r4, ip, [sp, #4]
 8002570:	9500      	str	r5, [sp, #0]
 8002572:	f000 ff29 	bl	80033c8 <xTaskCreateStatic>
 8002576:	9005      	str	r0, [sp, #20]
 8002578:	e7e2      	b.n	8002540 <osThreadNew+0x6c>
 800257a:	2718      	movs	r7, #24
 800257c:	2280      	movs	r2, #128	; 0x80
 800257e:	f10d 0113 	add.w	r1, sp, #19
 8002582:	e7e8      	b.n	8002556 <osThreadNew+0x82>
 8002584:	2000      	movs	r0, #0
 8002586:	e7dc      	b.n	8002542 <osThreadNew+0x6e>
 8002588:	20000288 	.word	0x20000288

0800258c <osThreadYield>:
 800258c:	f3ef 8305 	mrs	r3, IPSR
 8002590:	b113      	cbz	r3, 8002598 <osThreadYield+0xc>
 8002592:	f06f 0005 	mvn.w	r0, #5
 8002596:	4770      	bx	lr
 8002598:	f3ef 8310 	mrs	r3, PRIMASK
 800259c:	2b00      	cmp	r3, #0
 800259e:	d1f8      	bne.n	8002592 <osThreadYield+0x6>
 80025a0:	4b08      	ldr	r3, [pc, #32]	; (80025c4 <osThreadYield+0x38>)
 80025a2:	681b      	ldr	r3, [r3, #0]
 80025a4:	2b02      	cmp	r3, #2
 80025a6:	d103      	bne.n	80025b0 <osThreadYield+0x24>
 80025a8:	f3ef 8311 	mrs	r3, BASEPRI
 80025ac:	2b00      	cmp	r3, #0
 80025ae:	d1f0      	bne.n	8002592 <osThreadYield+0x6>
 80025b0:	f04f 5280 	mov.w	r2, #268435456	; 0x10000000
 80025b4:	4b04      	ldr	r3, [pc, #16]	; (80025c8 <osThreadYield+0x3c>)
 80025b6:	601a      	str	r2, [r3, #0]
 80025b8:	f3bf 8f4f 	dsb	sy
 80025bc:	f3bf 8f6f 	isb	sy
 80025c0:	2000      	movs	r0, #0
 80025c2:	4770      	bx	lr
 80025c4:	20000288 	.word	0x20000288
 80025c8:	e000ed04 	.word	0xe000ed04

080025cc <osThreadFlagsSet>:
 80025cc:	b57f      	push	{r0, r1, r2, r3, r4, r5, r6, lr}
 80025ce:	4604      	mov	r4, r0
 80025d0:	b108      	cbz	r0, 80025d6 <osThreadFlagsSet+0xa>
 80025d2:	2900      	cmp	r1, #0
 80025d4:	da05      	bge.n	80025e2 <osThreadFlagsSet+0x16>
 80025d6:	f06f 0303 	mvn.w	r3, #3
 80025da:	9302      	str	r3, [sp, #8]
 80025dc:	9802      	ldr	r0, [sp, #8]
 80025de:	b004      	add	sp, #16
 80025e0:	bd70      	pop	{r4, r5, r6, pc}
 80025e2:	f04f 33ff 	mov.w	r3, #4294967295
 80025e6:	ad04      	add	r5, sp, #16
 80025e8:	f845 3d08 	str.w	r3, [r5, #-8]!
 80025ec:	f3ef 8305 	mrs	r3, IPSR
 80025f0:	b1e3      	cbz	r3, 800262c <osThreadFlagsSet+0x60>
 80025f2:	2600      	movs	r6, #0
 80025f4:	ab04      	add	r3, sp, #16
 80025f6:	f843 6d04 	str.w	r6, [r3, #-4]!
 80025fa:	9300      	str	r3, [sp, #0]
 80025fc:	2201      	movs	r2, #1
 80025fe:	4633      	mov	r3, r6
 8002600:	4620      	mov	r0, r4
 8002602:	f001 fabf 	bl	8003b84 <xTaskGenericNotifyFromISR>
 8002606:	462b      	mov	r3, r5
 8002608:	9600      	str	r6, [sp, #0]
 800260a:	4632      	mov	r2, r6
 800260c:	4631      	mov	r1, r6
 800260e:	4620      	mov	r0, r4
 8002610:	f001 fab8 	bl	8003b84 <xTaskGenericNotifyFromISR>
 8002614:	9b03      	ldr	r3, [sp, #12]
 8002616:	2b00      	cmp	r3, #0
 8002618:	d0e0      	beq.n	80025dc <osThreadFlagsSet+0x10>
 800261a:	f04f 5280 	mov.w	r2, #268435456	; 0x10000000
 800261e:	4b0f      	ldr	r3, [pc, #60]	; (800265c <osThreadFlagsSet+0x90>)
 8002620:	601a      	str	r2, [r3, #0]
 8002622:	f3bf 8f4f 	dsb	sy
 8002626:	f3bf 8f6f 	isb	sy
 800262a:	e7d7      	b.n	80025dc <osThreadFlagsSet+0x10>
 800262c:	f3ef 8310 	mrs	r3, PRIMASK
 8002630:	2b00      	cmp	r3, #0
 8002632:	d1de      	bne.n	80025f2 <osThreadFlagsSet+0x26>
 8002634:	4b0a      	ldr	r3, [pc, #40]	; (8002660 <osThreadFlagsSet+0x94>)
 8002636:	681b      	ldr	r3, [r3, #0]
 8002638:	2b02      	cmp	r3, #2
 800263a:	d103      	bne.n	8002644 <osThreadFlagsSet+0x78>
 800263c:	f3ef 8311 	mrs	r3, BASEPRI
 8002640:	2b00      	cmp	r3, #0
 8002642:	d1d6      	bne.n	80025f2 <osThreadFlagsSet+0x26>
 8002644:	2300      	movs	r3, #0
 8002646:	2201      	movs	r2, #1
 8002648:	4620      	mov	r0, r4
 800264a:	f001 fa35 	bl	8003ab8 <xTaskGenericNotify>
 800264e:	2200      	movs	r2, #0
 8002650:	462b      	mov	r3, r5
 8002652:	4611      	mov	r1, r2
 8002654:	4620      	mov	r0, r4
 8002656:	f001 fa2f 	bl	8003ab8 <xTaskGenericNotify>
 800265a:	e7bf      	b.n	80025dc <osThreadFlagsSet+0x10>
 800265c:	e000ed04 	.word	0xe000ed04
 8002660:	20000288 	.word	0x20000288

08002664 <osThreadFlagsWait>:
 8002664:	e92d 4ff7 	stmdb	sp!, {r0, r1, r2, r4, r5, r6, r7, r8, r9, sl, fp, lr}
 8002668:	4606      	mov	r6, r0
 800266a:	4689      	mov	r9, r1
 800266c:	4617      	mov	r7, r2
 800266e:	f3ef 8305 	mrs	r3, IPSR
 8002672:	b12b      	cbz	r3, 8002680 <osThreadFlagsWait+0x1c>
 8002674:	f06f 0405 	mvn.w	r4, #5
 8002678:	4620      	mov	r0, r4
 800267a:	b003      	add	sp, #12
 800267c:	e8bd 8ff0 	ldmia.w	sp!, {r4, r5, r6, r7, r8, r9, sl, fp, pc}
 8002680:	f3ef 8410 	mrs	r4, PRIMASK
 8002684:	2c00      	cmp	r4, #0
 8002686:	d1f5      	bne.n	8002674 <osThreadFlagsWait+0x10>
 8002688:	4b21      	ldr	r3, [pc, #132]	; (8002710 <osThreadFlagsWait+0xac>)
 800268a:	681b      	ldr	r3, [r3, #0]
 800268c:	2b02      	cmp	r3, #2
 800268e:	d103      	bne.n	8002698 <osThreadFlagsWait+0x34>
 8002690:	f3ef 8311 	mrs	r3, BASEPRI
 8002694:	2b00      	cmp	r3, #0
 8002696:	d1ed      	bne.n	8002674 <osThreadFlagsWait+0x10>
 8002698:	2e00      	cmp	r6, #0
 800269a:	db33      	blt.n	8002704 <osThreadFlagsWait+0xa0>
 800269c:	f019 0f02 	tst.w	r9, #2
 80026a0:	bf0c      	ite	eq
 80026a2:	46b2      	moveq	sl, r6
 80026a4:	f04f 0a00 	movne.w	sl, #0
 80026a8:	f000 ff3e 	bl	8003528 <xTaskGetTickCount>
 80026ac:	2f00      	cmp	r7, #0
 80026ae:	4683      	mov	fp, r0
 80026b0:	bf0c      	ite	eq
 80026b2:	f06f 0802 	mvneq.w	r8, #2
 80026b6:	f06f 0801 	mvnne.w	r8, #1
 80026ba:	463d      	mov	r5, r7
 80026bc:	462b      	mov	r3, r5
 80026be:	aa01      	add	r2, sp, #4
 80026c0:	4651      	mov	r1, sl
 80026c2:	2000      	movs	r0, #0
 80026c4:	f001 f9b4 	bl	8003a30 <xTaskNotifyWait>
 80026c8:	2801      	cmp	r0, #1
 80026ca:	d117      	bne.n	80026fc <osThreadFlagsWait+0x98>
 80026cc:	9b01      	ldr	r3, [sp, #4]
 80026ce:	4034      	ands	r4, r6
 80026d0:	431c      	orrs	r4, r3
 80026d2:	f019 0f01 	tst.w	r9, #1
 80026d6:	ea06 0304 	and.w	r3, r6, r4
 80026da:	d00c      	beq.n	80026f6 <osThreadFlagsWait+0x92>
 80026dc:	429e      	cmp	r6, r3
 80026de:	d0cb      	beq.n	8002678 <osThreadFlagsWait+0x14>
 80026e0:	b19f      	cbz	r7, 800270a <osThreadFlagsWait+0xa6>
 80026e2:	f000 ff21 	bl	8003528 <xTaskGetTickCount>
 80026e6:	eba0 000b 	sub.w	r0, r0, fp
 80026ea:	4285      	cmp	r5, r0
 80026ec:	d301      	bcc.n	80026f2 <osThreadFlagsWait+0x8e>
 80026ee:	1a2d      	subs	r5, r5, r0
 80026f0:	e7e4      	b.n	80026bc <osThreadFlagsWait+0x58>
 80026f2:	2500      	movs	r5, #0
 80026f4:	e7e2      	b.n	80026bc <osThreadFlagsWait+0x58>
 80026f6:	2b00      	cmp	r3, #0
 80026f8:	d0f2      	beq.n	80026e0 <osThreadFlagsWait+0x7c>
 80026fa:	e7bd      	b.n	8002678 <osThreadFlagsWait+0x14>
 80026fc:	4644      	mov	r4, r8
 80026fe:	2800      	cmp	r0, #0
 8002700:	d1dc      	bne.n	80026bc <osThreadFlagsWait+0x58>
 8002702:	e7b9      	b.n	8002678 <osThreadFlagsWait+0x14>
 8002704:	f06f 0403 	mvn.w	r4, #3
 8002708:	e7b6      	b.n	8002678 <osThreadFlagsWait+0x14>
 800270a:	f06f 0402 	mvn.w	r4, #2
 800270e:	e7b3      	b.n	8002678 <osThreadFlagsWait+0x14>
 8002710:	20000288 	.word	0x20000288

08002714 <osDelay>:
 8002714:	b508      	push	{r3, lr}
 8002716:	f3ef 8305 	mrs	r3, IPSR
 800271a:	b113      	cbz	r3, 8002722 <osDelay+0xe>
 800271c:	f06f 0005 	mvn.w	r0, #5
 8002720:	bd08      	pop	{r3, pc}
 8002722:	f3ef 8310 	mrs	r3, PRIMASK
 8002726:	2b00      	cmp	r3, #0
 8002728:	d1f8      	bne.n	800271c <osDelay+0x8>
 800272a:	4b07      	ldr	r3, [pc, #28]	; (8002748 <osDelay+0x34>)
 800272c:	681b      	ldr	r3, [r3, #0]
 800272e:	2b02      	cmp	r3, #2
 8002730:	d103      	bne.n	800273a <osDelay+0x26>
 8002732:	f3ef 8311 	mrs	r3, BASEPRI
 8002736:	2b00      	cmp	r3, #0
 8002738:	d1f0      	bne.n	800271c <osDelay+0x8>
 800273a:	2800      	cmp	r0, #0
 800273c:	d0f0      	beq.n	8002720 <osDelay+0xc>
 800273e:	f000 fffd 	bl	800373c <vTaskDelay>
 8002742:	2000      	movs	r0, #0
 8002744:	e7ec      	b.n	8002720 <osDelay+0xc>
 8002746:	bf00      	nop
 8002748:	20000288 	.word	0x20000288

0800274c <osTimerNew>:
 800274c:	b5f7      	push	{r0, r1, r2, r4, r5, r6, r7, lr}
 800274e:	4606      	mov	r6, r0
 8002750:	460d      	mov	r5, r1
 8002752:	4617      	mov	r7, r2
 8002754:	461c      	mov	r4, r3
 8002756:	f3ef 8305 	mrs	r3, IPSR
 800275a:	b113      	cbz	r3, 8002762 <osTimerNew+0x16>
 800275c:	2000      	movs	r0, #0
 800275e:	b003      	add	sp, #12
 8002760:	bdf0      	pop	{r4, r5, r6, r7, pc}
 8002762:	f3ef 8310 	mrs	r3, PRIMASK
 8002766:	2b00      	cmp	r3, #0
 8002768:	d1f8      	bne.n	800275c <osTimerNew+0x10>
 800276a:	4b16      	ldr	r3, [pc, #88]	; (80027c4 <osTimerNew+0x78>)
 800276c:	681b      	ldr	r3, [r3, #0]
 800276e:	2b02      	cmp	r3, #2
 8002770:	d103      	bne.n	800277a <osTimerNew+0x2e>
 8002772:	f3ef 8311 	mrs	r3, BASEPRI
 8002776:	2b00      	cmp	r3, #0
 8002778:	d1f0      	bne.n	800275c <osTimerNew+0x10>
 800277a:	2e00      	cmp	r6, #0
 800277c:	d0ee      	beq.n	800275c <osTimerNew+0x10>
 800277e:	2008      	movs	r0, #8
 8002780:	f001 fe5c 	bl	800443c <pvPortMalloc>
 8002784:	4603      	mov	r3, r0
 8002786:	2800      	cmp	r0, #0
 8002788:	d0e8      	beq.n	800275c <osTimerNew+0x10>
 800278a:	1c2a      	adds	r2, r5, #0
 800278c:	e9c0 6700 	strd	r6, r7, [r0]
 8002790:	bf18      	it	ne
 8002792:	2201      	movne	r2, #1
 8002794:	b1a4      	cbz	r4, 80027c0 <osTimerNew+0x74>
 8002796:	6820      	ldr	r0, [r4, #0]
 8002798:	e9d4 1402 	ldrd	r1, r4, [r4, #8]
 800279c:	b141      	cbz	r1, 80027b0 <osTimerNew+0x64>
 800279e:	2c2f      	cmp	r4, #47	; 0x2f
 80027a0:	d9dc      	bls.n	800275c <osTimerNew+0x10>
 80027a2:	9101      	str	r1, [sp, #4]
 80027a4:	4908      	ldr	r1, [pc, #32]	; (80027c8 <osTimerNew+0x7c>)
 80027a6:	9100      	str	r1, [sp, #0]
 80027a8:	2101      	movs	r1, #1
 80027aa:	f001 fb18 	bl	8003dde <xTimerCreateStatic>
 80027ae:	e7d6      	b.n	800275e <osTimerNew+0x12>
 80027b0:	2c00      	cmp	r4, #0
 80027b2:	d1d3      	bne.n	800275c <osTimerNew+0x10>
 80027b4:	4904      	ldr	r1, [pc, #16]	; (80027c8 <osTimerNew+0x7c>)
 80027b6:	9100      	str	r1, [sp, #0]
 80027b8:	2101      	movs	r1, #1
 80027ba:	f001 fae9 	bl	8003d90 <xTimerCreate>
 80027be:	e7ce      	b.n	800275e <osTimerNew+0x12>
 80027c0:	4620      	mov	r0, r4
 80027c2:	e7f7      	b.n	80027b4 <osTimerNew+0x68>
 80027c4:	20000288 	.word	0x20000288
 80027c8:	08002449 	.word	0x08002449

080027cc <osMessageQueueNew>:
 80027cc:	b573      	push	{r0, r1, r4, r5, r6, lr}
 80027ce:	4614      	mov	r4, r2
 80027d0:	f3ef 8305 	mrs	r3, IPSR
 80027d4:	b11b      	cbz	r3, 80027de <osMessageQueueNew+0x12>
 80027d6:	2500      	movs	r5, #0
 80027d8:	4628      	mov	r0, r5
 80027da:	b002      	add	sp, #8
 80027dc:	bd70      	pop	{r4, r5, r6, pc}
 80027de:	f3ef 8310 	mrs	r3, PRIMASK
 80027e2:	2b00      	cmp	r3, #0
 80027e4:	d1f7      	bne.n	80027d6 <osMessageQueueNew+0xa>
 80027e6:	4b1c      	ldr	r3, [pc, #112]	; (8002858 <osMessageQueueNew+0x8c>)
 80027e8:	681b      	ldr	r3, [r3, #0]
 80027ea:	2b02      	cmp	r3, #2
 80027ec:	d103      	bne.n	80027f6 <osMessageQueueNew+0x2a>
 80027ee:	f3ef 8311 	mrs	r3, BASEPRI
 80027f2:	2b00      	cmp	r3, #0
 80027f4:	d1ef      	bne.n	80027d6 <osMessageQueueNew+0xa>
 80027f6:	2800      	cmp	r0, #0
 80027f8:	d0ed      	beq.n	80027d6 <osMessageQueueNew+0xa>
 80027fa:	2900      	cmp	r1, #0
 80027fc:	d0eb      	beq.n	80027d6 <osMessageQueueNew+0xa>
 80027fe:	b304      	cbz	r4, 8002842 <osMessageQueueNew+0x76>
 8002800:	e9d4 3202 	ldrd	r3, r2, [r4, #8]
 8002804:	b1ab      	cbz	r3, 8002832 <osMessageQueueNew+0x66>
 8002806:	2a4f      	cmp	r2, #79	; 0x4f
 8002808:	d9e5      	bls.n	80027d6 <osMessageQueueNew+0xa>
 800280a:	6922      	ldr	r2, [r4, #16]
 800280c:	2a00      	cmp	r2, #0
 800280e:	d0e2      	beq.n	80027d6 <osMessageQueueNew+0xa>
 8002810:	fb01 f500 	mul.w	r5, r1, r0
 8002814:	6966      	ldr	r6, [r4, #20]
 8002816:	42ae      	cmp	r6, r5
 8002818:	d3dd      	bcc.n	80027d6 <osMessageQueueNew+0xa>
 800281a:	2500      	movs	r5, #0
 800281c:	9500      	str	r5, [sp, #0]
 800281e:	f000 f9c7 	bl	8002bb0 <xQueueGenericCreateStatic>
 8002822:	4605      	mov	r5, r0
 8002824:	2800      	cmp	r0, #0
 8002826:	d0d6      	beq.n	80027d6 <osMessageQueueNew+0xa>
 8002828:	6821      	ldr	r1, [r4, #0]
 800282a:	4628      	mov	r0, r5
 800282c:	f000 fc38 	bl	80030a0 <vQueueAddToRegistry>
 8002830:	e7d2      	b.n	80027d8 <osMessageQueueNew+0xc>
 8002832:	2a00      	cmp	r2, #0
 8002834:	d1cf      	bne.n	80027d6 <osMessageQueueNew+0xa>
 8002836:	6923      	ldr	r3, [r4, #16]
 8002838:	2b00      	cmp	r3, #0
 800283a:	d1cc      	bne.n	80027d6 <osMessageQueueNew+0xa>
 800283c:	6963      	ldr	r3, [r4, #20]
 800283e:	2b00      	cmp	r3, #0
 8002840:	d1c9      	bne.n	80027d6 <osMessageQueueNew+0xa>
 8002842:	2200      	movs	r2, #0
 8002844:	f000 fa01 	bl	8002c4a <xQueueGenericCreate>
 8002848:	4605      	mov	r5, r0
 800284a:	2800      	cmp	r0, #0
 800284c:	d0c3      	beq.n	80027d6 <osMessageQueueNew+0xa>
 800284e:	2c00      	cmp	r4, #0
 8002850:	d1ea      	bne.n	8002828 <osMessageQueueNew+0x5c>
 8002852:	4621      	mov	r1, r4
 8002854:	e7e9      	b.n	800282a <osMessageQueueNew+0x5e>
 8002856:	bf00      	nop
 8002858:	20000288 	.word	0x20000288

0800285c <osMessageQueuePut>:
 800285c:	b513      	push	{r0, r1, r4, lr}
 800285e:	461c      	mov	r4, r3
 8002860:	f3ef 8305 	mrs	r3, IPSR
 8002864:	b123      	cbz	r3, 8002870 <osMessageQueuePut+0x14>
 8002866:	b9e8      	cbnz	r0, 80028a4 <osMessageQueuePut+0x48>
 8002868:	f06f 0003 	mvn.w	r0, #3
 800286c:	b002      	add	sp, #8
 800286e:	bd10      	pop	{r4, pc}
 8002870:	f3ef 8310 	mrs	r3, PRIMASK
 8002874:	2b00      	cmp	r3, #0
 8002876:	d1f6      	bne.n	8002866 <osMessageQueuePut+0xa>
 8002878:	4b18      	ldr	r3, [pc, #96]	; (80028dc <osMessageQueuePut+0x80>)
 800287a:	681b      	ldr	r3, [r3, #0]
 800287c:	2b02      	cmp	r3, #2
 800287e:	d103      	bne.n	8002888 <osMessageQueuePut+0x2c>
 8002880:	f3ef 8311 	mrs	r3, BASEPRI
 8002884:	2b00      	cmp	r3, #0
 8002886:	d1ee      	bne.n	8002866 <osMessageQueuePut+0xa>
 8002888:	2800      	cmp	r0, #0
 800288a:	d0ed      	beq.n	8002868 <osMessageQueuePut+0xc>
 800288c:	2900      	cmp	r1, #0
 800288e:	d0eb      	beq.n	8002868 <osMessageQueuePut+0xc>
 8002890:	2300      	movs	r3, #0
 8002892:	4622      	mov	r2, r4
 8002894:	f000 fa00 	bl	8002c98 <xQueueGenericSend>
 8002898:	2801      	cmp	r0, #1
 800289a:	d011      	beq.n	80028c0 <osMessageQueuePut+0x64>
 800289c:	b9dc      	cbnz	r4, 80028d6 <osMessageQueuePut+0x7a>
 800289e:	f06f 0002 	mvn.w	r0, #2
 80028a2:	e7e3      	b.n	800286c <osMessageQueuePut+0x10>
 80028a4:	2900      	cmp	r1, #0
 80028a6:	d0df      	beq.n	8002868 <osMessageQueuePut+0xc>
 80028a8:	2c00      	cmp	r4, #0
 80028aa:	d1dd      	bne.n	8002868 <osMessageQueuePut+0xc>
 80028ac:	aa02      	add	r2, sp, #8
 80028ae:	f842 4d04 	str.w	r4, [r2, #-4]!
 80028b2:	4623      	mov	r3, r4
 80028b4:	f000 faa2 	bl	8002dfc <xQueueGenericSendFromISR>
 80028b8:	2801      	cmp	r0, #1
 80028ba:	d1f0      	bne.n	800289e <osMessageQueuePut+0x42>
 80028bc:	9b01      	ldr	r3, [sp, #4]
 80028be:	b90b      	cbnz	r3, 80028c4 <osMessageQueuePut+0x68>
 80028c0:	2000      	movs	r0, #0
 80028c2:	e7d3      	b.n	800286c <osMessageQueuePut+0x10>
 80028c4:	f04f 5280 	mov.w	r2, #268435456	; 0x10000000
 80028c8:	4b05      	ldr	r3, [pc, #20]	; (80028e0 <osMessageQueuePut+0x84>)
 80028ca:	601a      	str	r2, [r3, #0]
 80028cc:	f3bf 8f4f 	dsb	sy
 80028d0:	f3bf 8f6f 	isb	sy
 80028d4:	e7f4      	b.n	80028c0 <osMessageQueuePut+0x64>
 80028d6:	f06f 0001 	mvn.w	r0, #1
 80028da:	e7c7      	b.n	800286c <osMessageQueuePut+0x10>
 80028dc:	20000288 	.word	0x20000288
 80028e0:	e000ed04 	.word	0xe000ed04

080028e4 <osMessageQueueGet>:
 80028e4:	b513      	push	{r0, r1, r4, lr}
 80028e6:	461c      	mov	r4, r3
 80028e8:	f3ef 8305 	mrs	r3, IPSR
 80028ec:	b123      	cbz	r3, 80028f8 <osMessageQueueGet+0x14>
 80028ee:	b9e0      	cbnz	r0, 800292a <osMessageQueueGet+0x46>
 80028f0:	f06f 0003 	mvn.w	r0, #3
 80028f4:	b002      	add	sp, #8
 80028f6:	bd10      	pop	{r4, pc}
 80028f8:	f3ef 8310 	mrs	r3, PRIMASK
 80028fc:	2b00      	cmp	r3, #0
 80028fe:	d1f6      	bne.n	80028ee <osMessageQueueGet+0xa>
 8002900:	4b17      	ldr	r3, [pc, #92]	; (8002960 <osMessageQueueGet+0x7c>)
 8002902:	681b      	ldr	r3, [r3, #0]
 8002904:	2b02      	cmp	r3, #2
 8002906:	d103      	bne.n	8002910 <osMessageQueueGet+0x2c>
 8002908:	f3ef 8311 	mrs	r3, BASEPRI
 800290c:	2b00      	cmp	r3, #0
 800290e:	d1ee      	bne.n	80028ee <osMessageQueueGet+0xa>
 8002910:	2800      	cmp	r0, #0
 8002912:	d0ed      	beq.n	80028f0 <osMessageQueueGet+0xc>
 8002914:	2900      	cmp	r1, #0
 8002916:	d0eb      	beq.n	80028f0 <osMessageQueueGet+0xc>
 8002918:	4622      	mov	r2, r4
 800291a:	f000 fad1 	bl	8002ec0 <xQueueReceive>
 800291e:	2801      	cmp	r0, #1
 8002920:	d010      	beq.n	8002944 <osMessageQueueGet+0x60>
 8002922:	b9d4      	cbnz	r4, 800295a <osMessageQueueGet+0x76>
 8002924:	f06f 0002 	mvn.w	r0, #2
 8002928:	e7e4      	b.n	80028f4 <osMessageQueueGet+0x10>
 800292a:	2900      	cmp	r1, #0
 800292c:	d0e0      	beq.n	80028f0 <osMessageQueueGet+0xc>
 800292e:	2c00      	cmp	r4, #0
 8002930:	d1de      	bne.n	80028f0 <osMessageQueueGet+0xc>
 8002932:	aa02      	add	r2, sp, #8
 8002934:	f842 4d04 	str.w	r4, [r2, #-4]!
 8002938:	f000 fb62 	bl	8003000 <xQueueReceiveFromISR>
 800293c:	2801      	cmp	r0, #1
 800293e:	d1f1      	bne.n	8002924 <osMessageQueueGet+0x40>
 8002940:	9b01      	ldr	r3, [sp, #4]
 8002942:	b90b      	cbnz	r3, 8002948 <osMessageQueueGet+0x64>
 8002944:	2000      	movs	r0, #0
 8002946:	e7d5      	b.n	80028f4 <osMessageQueueGet+0x10>
 8002948:	f04f 5280 	mov.w	r2, #268435456	; 0x10000000
 800294c:	4b05      	ldr	r3, [pc, #20]	; (8002964 <osMessageQueueGet+0x80>)
 800294e:	601a      	str	r2, [r3, #0]
 8002950:	f3bf 8f4f 	dsb	sy
 8002954:	f3bf 8f6f 	isb	sy
 8002958:	e7f4      	b.n	8002944 <osMessageQueueGet+0x60>
 800295a:	f06f 0001 	mvn.w	r0, #1
 800295e:	e7c9      	b.n	80028f4 <osMessageQueueGet+0x10>
 8002960:	20000288 	.word	0x20000288
 8002964:	e000ed04 	.word	0xe000ed04

08002968 <vApplicationGetIdleTaskMemory>:
 8002968:	4b03      	ldr	r3, [pc, #12]	; (8002978 <vApplicationGetIdleTaskMemory+0x10>)
 800296a:	6003      	str	r3, [r0, #0]
 800296c:	4b03      	ldr	r3, [pc, #12]	; (800297c <vApplicationGetIdleTaskMemory+0x14>)
 800296e:	600b      	str	r3, [r1, #0]
 8002970:	2380      	movs	r3, #128	; 0x80
 8002972:	6013      	str	r3, [r2, #0]
 8002974:	4770      	bx	lr
 8002976:	bf00      	nop
 8002978:	2000022c 	.word	0x2000022c
 800297c:	2000002c 	.word	0x2000002c

08002980 <vApplicationGetTimerTaskMemory>:
 8002980:	4b03      	ldr	r3, [pc, #12]	; (8002990 <vApplicationGetTimerTaskMemory+0x10>)
 8002982:	6003      	str	r3, [r0, #0]
 8002984:	4b03      	ldr	r3, [pc, #12]	; (8002994 <vApplicationGetTimerTaskMemory+0x14>)
 8002986:	600b      	str	r3, [r1, #0]
 8002988:	f44f 7380 	mov.w	r3, #256	; 0x100
 800298c:	6013      	str	r3, [r2, #0]
 800298e:	4770      	bx	lr
 8002990:	2000068c 	.word	0x2000068c
 8002994:	2000028c 	.word	0x2000028c

08002998 <vListInitialise>:
 8002998:	f04f 32ff 	mov.w	r2, #4294967295
 800299c:	f100 0308 	add.w	r3, r0, #8
 80029a0:	6043      	str	r3, [r0, #4]
 80029a2:	e9c0 2302 	strd	r2, r3, [r0, #8]
 80029a6:	6103      	str	r3, [r0, #16]
 80029a8:	2300      	movs	r3, #0
 80029aa:	6003      	str	r3, [r0, #0]
 80029ac:	4770      	bx	lr

080029ae <vListInitialiseItem>:
 80029ae:	2300      	movs	r3, #0
 80029b0:	6103      	str	r3, [r0, #16]
 80029b2:	4770      	bx	lr

080029b4 <vListInsertEnd>:
 80029b4:	6843      	ldr	r3, [r0, #4]
 80029b6:	689a      	ldr	r2, [r3, #8]
 80029b8:	604b      	str	r3, [r1, #4]
 80029ba:	608a      	str	r2, [r1, #8]
 80029bc:	689a      	ldr	r2, [r3, #8]
 80029be:	6051      	str	r1, [r2, #4]
 80029c0:	6099      	str	r1, [r3, #8]
 80029c2:	6803      	ldr	r3, [r0, #0]
 80029c4:	6108      	str	r0, [r1, #16]
 80029c6:	3301      	adds	r3, #1
 80029c8:	6003      	str	r3, [r0, #0]
 80029ca:	4770      	bx	lr

080029cc <vListInsert>:
 80029cc:	680a      	ldr	r2, [r1, #0]
 80029ce:	b530      	push	{r4, r5, lr}
 80029d0:	1c53      	adds	r3, r2, #1
 80029d2:	d10a      	bne.n	80029ea <vListInsert+0x1e>
 80029d4:	6903      	ldr	r3, [r0, #16]
 80029d6:	685a      	ldr	r2, [r3, #4]
 80029d8:	604a      	str	r2, [r1, #4]
 80029da:	6091      	str	r1, [r2, #8]
 80029dc:	608b      	str	r3, [r1, #8]
 80029de:	6059      	str	r1, [r3, #4]
 80029e0:	6803      	ldr	r3, [r0, #0]
 80029e2:	6108      	str	r0, [r1, #16]
 80029e4:	3301      	adds	r3, #1
 80029e6:	6003      	str	r3, [r0, #0]
 80029e8:	bd30      	pop	{r4, r5, pc}
 80029ea:	f100 0308 	add.w	r3, r0, #8
 80029ee:	685c      	ldr	r4, [r3, #4]
 80029f0:	6825      	ldr	r5, [r4, #0]
 80029f2:	4295      	cmp	r5, r2
 80029f4:	d8ef      	bhi.n	80029d6 <vListInsert+0xa>
 80029f6:	4623      	mov	r3, r4
 80029f8:	e7f9      	b.n	80029ee <vListInsert+0x22>

080029fa <uxListRemove>:
 80029fa:	6903      	ldr	r3, [r0, #16]
 80029fc:	e9d0 1201 	ldrd	r1, r2, [r0, #4]
 8002a00:	608a      	str	r2, [r1, #8]
 8002a02:	6882      	ldr	r2, [r0, #8]
 8002a04:	6051      	str	r1, [r2, #4]
 8002a06:	6859      	ldr	r1, [r3, #4]
 8002a08:	4281      	cmp	r1, r0
 8002a0a:	bf08      	it	eq
 8002a0c:	605a      	streq	r2, [r3, #4]
 8002a0e:	2200      	movs	r2, #0
 8002a10:	6102      	str	r2, [r0, #16]
 8002a12:	681a      	ldr	r2, [r3, #0]
 8002a14:	3a01      	subs	r2, #1
 8002a16:	601a      	str	r2, [r3, #0]
 8002a18:	6818      	ldr	r0, [r3, #0]
 8002a1a:	4770      	bx	lr

08002a1c <prvIsQueueEmpty>:
 8002a1c:	b510      	push	{r4, lr}
 8002a1e:	4604      	mov	r4, r0
 8002a20:	f001 fbd8 	bl	80041d4 <vPortEnterCritical>
 8002a24:	6ba4      	ldr	r4, [r4, #56]	; 0x38
 8002a26:	f001 fbf7 	bl	8004218 <vPortExitCritical>
 8002a2a:	fab4 f084 	clz	r0, r4
 8002a2e:	0940      	lsrs	r0, r0, #5
 8002a30:	bd10      	pop	{r4, pc}

08002a32 <prvCopyDataToQueue>:
 8002a32:	b570      	push	{r4, r5, r6, lr}
 8002a34:	4615      	mov	r5, r2
 8002a36:	6c02      	ldr	r2, [r0, #64]	; 0x40
 8002a38:	4604      	mov	r4, r0
 8002a3a:	6b86      	ldr	r6, [r0, #56]	; 0x38
 8002a3c:	b942      	cbnz	r2, 8002a50 <prvCopyDataToQueue+0x1e>
 8002a3e:	6805      	ldr	r5, [r0, #0]
 8002a40:	b99d      	cbnz	r5, 8002a6a <prvCopyDataToQueue+0x38>
 8002a42:	6840      	ldr	r0, [r0, #4]
 8002a44:	f000 ffb2 	bl	80039ac <xTaskPriorityDisinherit>
 8002a48:	6065      	str	r5, [r4, #4]
 8002a4a:	3601      	adds	r6, #1
 8002a4c:	63a6      	str	r6, [r4, #56]	; 0x38
 8002a4e:	bd70      	pop	{r4, r5, r6, pc}
 8002a50:	b96d      	cbnz	r5, 8002a6e <prvCopyDataToQueue+0x3c>
 8002a52:	6880      	ldr	r0, [r0, #8]
 8002a54:	f001 fdda 	bl	800460c <memcpy>
 8002a58:	68a3      	ldr	r3, [r4, #8]
 8002a5a:	6c22      	ldr	r2, [r4, #64]	; 0x40
 8002a5c:	4413      	add	r3, r2
 8002a5e:	6862      	ldr	r2, [r4, #4]
 8002a60:	60a3      	str	r3, [r4, #8]
 8002a62:	4293      	cmp	r3, r2
 8002a64:	d301      	bcc.n	8002a6a <prvCopyDataToQueue+0x38>
 8002a66:	6823      	ldr	r3, [r4, #0]
 8002a68:	60a3      	str	r3, [r4, #8]
 8002a6a:	2000      	movs	r0, #0
 8002a6c:	e7ed      	b.n	8002a4a <prvCopyDataToQueue+0x18>
 8002a6e:	68c0      	ldr	r0, [r0, #12]
 8002a70:	f001 fdcc 	bl	800460c <memcpy>
 8002a74:	6c23      	ldr	r3, [r4, #64]	; 0x40
 8002a76:	68e2      	ldr	r2, [r4, #12]
 8002a78:	425b      	negs	r3, r3
 8002a7a:	6821      	ldr	r1, [r4, #0]
 8002a7c:	441a      	add	r2, r3
 8002a7e:	428a      	cmp	r2, r1
 8002a80:	60e2      	str	r2, [r4, #12]
 8002a82:	bf3e      	ittt	cc
 8002a84:	6862      	ldrcc	r2, [r4, #4]
 8002a86:	189b      	addcc	r3, r3, r2
 8002a88:	60e3      	strcc	r3, [r4, #12]
 8002a8a:	2d02      	cmp	r5, #2
 8002a8c:	d1ed      	bne.n	8002a6a <prvCopyDataToQueue+0x38>
 8002a8e:	b10e      	cbz	r6, 8002a94 <prvCopyDataToQueue+0x62>
 8002a90:	3e01      	subs	r6, #1
 8002a92:	e7ea      	b.n	8002a6a <prvCopyDataToQueue+0x38>
 8002a94:	4630      	mov	r0, r6
 8002a96:	e7d8      	b.n	8002a4a <prvCopyDataToQueue+0x18>

08002a98 <prvCopyDataFromQueue>:
 8002a98:	4603      	mov	r3, r0
 8002a9a:	6c1a      	ldr	r2, [r3, #64]	; 0x40
 8002a9c:	b410      	push	{r4}
 8002a9e:	4608      	mov	r0, r1
 8002aa0:	b162      	cbz	r2, 8002abc <prvCopyDataFromQueue+0x24>
 8002aa2:	68d9      	ldr	r1, [r3, #12]
 8002aa4:	685c      	ldr	r4, [r3, #4]
 8002aa6:	4411      	add	r1, r2
 8002aa8:	42a1      	cmp	r1, r4
 8002aaa:	60d9      	str	r1, [r3, #12]
 8002aac:	bf28      	it	cs
 8002aae:	6819      	ldrcs	r1, [r3, #0]
 8002ab0:	bc10      	pop	{r4}
 8002ab2:	bf28      	it	cs
 8002ab4:	60d9      	strcs	r1, [r3, #12]
 8002ab6:	68d9      	ldr	r1, [r3, #12]
 8002ab8:	f001 bda8 	b.w	800460c <memcpy>
 8002abc:	bc10      	pop	{r4}
 8002abe:	4770      	bx	lr

08002ac0 <prvUnlockQueue>:
 8002ac0:	b570      	push	{r4, r5, r6, lr}
 8002ac2:	4604      	mov	r4, r0
 8002ac4:	f001 fb86 	bl	80041d4 <vPortEnterCritical>
 8002ac8:	f894 5045 	ldrb.w	r5, [r4, #69]	; 0x45
 8002acc:	f104 0624 	add.w	r6, r4, #36	; 0x24
 8002ad0:	b26d      	sxtb	r5, r5
 8002ad2:	2d00      	cmp	r5, #0
 8002ad4:	dc14      	bgt.n	8002b00 <prvUnlockQueue+0x40>
 8002ad6:	23ff      	movs	r3, #255	; 0xff
 8002ad8:	f884 3045 	strb.w	r3, [r4, #69]	; 0x45
 8002adc:	f001 fb9c 	bl	8004218 <vPortExitCritical>
 8002ae0:	f001 fb78 	bl	80041d4 <vPortEnterCritical>
 8002ae4:	f894 5044 	ldrb.w	r5, [r4, #68]	; 0x44
 8002ae8:	f104 0610 	add.w	r6, r4, #16
 8002aec:	b26d      	sxtb	r5, r5
 8002aee:	2d00      	cmp	r5, #0
 8002af0:	dc12      	bgt.n	8002b18 <prvUnlockQueue+0x58>
 8002af2:	23ff      	movs	r3, #255	; 0xff
 8002af4:	f884 3044 	strb.w	r3, [r4, #68]	; 0x44
 8002af8:	e8bd 4070 	ldmia.w	sp!, {r4, r5, r6, lr}
 8002afc:	f001 bb8c 	b.w	8004218 <vPortExitCritical>
 8002b00:	6a63      	ldr	r3, [r4, #36]	; 0x24
 8002b02:	2b00      	cmp	r3, #0
 8002b04:	d0e7      	beq.n	8002ad6 <prvUnlockQueue+0x16>
 8002b06:	4630      	mov	r0, r6
 8002b08:	f000 feb2 	bl	8003870 <xTaskRemoveFromEventList>
 8002b0c:	b108      	cbz	r0, 8002b12 <prvUnlockQueue+0x52>
 8002b0e:	f000 ff37 	bl	8003980 <vTaskMissedYield>
 8002b12:	3d01      	subs	r5, #1
 8002b14:	b26d      	sxtb	r5, r5
 8002b16:	e7dc      	b.n	8002ad2 <prvUnlockQueue+0x12>
 8002b18:	6923      	ldr	r3, [r4, #16]
 8002b1a:	2b00      	cmp	r3, #0
 8002b1c:	d0e9      	beq.n	8002af2 <prvUnlockQueue+0x32>
 8002b1e:	4630      	mov	r0, r6
 8002b20:	f000 fea6 	bl	8003870 <xTaskRemoveFromEventList>
 8002b24:	b108      	cbz	r0, 8002b2a <prvUnlockQueue+0x6a>
 8002b26:	f000 ff2b 	bl	8003980 <vTaskMissedYield>
 8002b2a:	3d01      	subs	r5, #1
 8002b2c:	b26d      	sxtb	r5, r5
 8002b2e:	e7de      	b.n	8002aee <prvUnlockQueue+0x2e>

08002b30 <xQueueGenericReset>:
 8002b30:	b538      	push	{r3, r4, r5, lr}
 8002b32:	460d      	mov	r5, r1
 8002b34:	4604      	mov	r4, r0
 8002b36:	b940      	cbnz	r0, 8002b4a <xQueueGenericReset+0x1a>
 8002b38:	f04f 0350 	mov.w	r3, #80	; 0x50
 8002b3c:	f383 8811 	msr	BASEPRI, r3
 8002b40:	f3bf 8f6f 	isb	sy
 8002b44:	f3bf 8f4f 	dsb	sy
 8002b48:	e7fe      	b.n	8002b48 <xQueueGenericReset+0x18>
 8002b4a:	f001 fb43 	bl	80041d4 <vPortEnterCritical>
 8002b4e:	e9d4 300f 	ldrd	r3, r0, [r4, #60]	; 0x3c
 8002b52:	4343      	muls	r3, r0
 8002b54:	6822      	ldr	r2, [r4, #0]
 8002b56:	18d1      	adds	r1, r2, r3
 8002b58:	1a1b      	subs	r3, r3, r0
 8002b5a:	4413      	add	r3, r2
 8002b5c:	6061      	str	r1, [r4, #4]
 8002b5e:	60e3      	str	r3, [r4, #12]
 8002b60:	2100      	movs	r1, #0
 8002b62:	23ff      	movs	r3, #255	; 0xff
 8002b64:	63a1      	str	r1, [r4, #56]	; 0x38
 8002b66:	60a2      	str	r2, [r4, #8]
 8002b68:	f884 3044 	strb.w	r3, [r4, #68]	; 0x44
 8002b6c:	f884 3045 	strb.w	r3, [r4, #69]	; 0x45
 8002b70:	b995      	cbnz	r5, 8002b98 <xQueueGenericReset+0x68>
 8002b72:	6923      	ldr	r3, [r4, #16]
 8002b74:	b163      	cbz	r3, 8002b90 <xQueueGenericReset+0x60>
 8002b76:	f104 0010 	add.w	r0, r4, #16
 8002b7a:	f000 fe79 	bl	8003870 <xTaskRemoveFromEventList>
 8002b7e:	b138      	cbz	r0, 8002b90 <xQueueGenericReset+0x60>
 8002b80:	f04f 5280 	mov.w	r2, #268435456	; 0x10000000
 8002b84:	4b09      	ldr	r3, [pc, #36]	; (8002bac <xQueueGenericReset+0x7c>)
 8002b86:	601a      	str	r2, [r3, #0]
 8002b88:	f3bf 8f4f 	dsb	sy
 8002b8c:	f3bf 8f6f 	isb	sy
 8002b90:	f001 fb42 	bl	8004218 <vPortExitCritical>
 8002b94:	2001      	movs	r0, #1
 8002b96:	bd38      	pop	{r3, r4, r5, pc}
 8002b98:	f104 0010 	add.w	r0, r4, #16
 8002b9c:	f7ff fefc 	bl	8002998 <vListInitialise>
 8002ba0:	f104 0024 	add.w	r0, r4, #36	; 0x24
 8002ba4:	f7ff fef8 	bl	8002998 <vListInitialise>
 8002ba8:	e7f2      	b.n	8002b90 <xQueueGenericReset+0x60>
 8002baa:	bf00      	nop
 8002bac:	e000ed04 	.word	0xe000ed04

08002bb0 <xQueueGenericCreateStatic>:
 8002bb0:	b513      	push	{r0, r1, r4, lr}
 8002bb2:	461c      	mov	r4, r3
 8002bb4:	b940      	cbnz	r0, 8002bc8 <xQueueGenericCreateStatic+0x18>
 8002bb6:	f04f 0350 	mov.w	r3, #80	; 0x50
 8002bba:	f383 8811 	msr	BASEPRI, r3
 8002bbe:	f3bf 8f6f 	isb	sy
 8002bc2:	f3bf 8f4f 	dsb	sy
 8002bc6:	e7fe      	b.n	8002bc6 <xQueueGenericCreateStatic+0x16>
 8002bc8:	b943      	cbnz	r3, 8002bdc <xQueueGenericCreateStatic+0x2c>
 8002bca:	f04f 0350 	mov.w	r3, #80	; 0x50
 8002bce:	f383 8811 	msr	BASEPRI, r3
 8002bd2:	f3bf 8f6f 	isb	sy
 8002bd6:	f3bf 8f4f 	dsb	sy
 8002bda:	e7fe      	b.n	8002bda <xQueueGenericCreateStatic+0x2a>
 8002bdc:	b14a      	cbz	r2, 8002bf2 <xQueueGenericCreateStatic+0x42>
 8002bde:	b991      	cbnz	r1, 8002c06 <xQueueGenericCreateStatic+0x56>
 8002be0:	f04f 0350 	mov.w	r3, #80	; 0x50
 8002be4:	f383 8811 	msr	BASEPRI, r3
 8002be8:	f3bf 8f6f 	isb	sy
 8002bec:	f3bf 8f4f 	dsb	sy
 8002bf0:	e7fe      	b.n	8002bf0 <xQueueGenericCreateStatic+0x40>
 8002bf2:	b141      	cbz	r1, 8002c06 <xQueueGenericCreateStatic+0x56>
 8002bf4:	f04f 0350 	mov.w	r3, #80	; 0x50
 8002bf8:	f383 8811 	msr	BASEPRI, r3
 8002bfc:	f3bf 8f6f 	isb	sy
 8002c00:	f3bf 8f4f 	dsb	sy
 8002c04:	e7fe      	b.n	8002c04 <xQueueGenericCreateStatic+0x54>
 8002c06:	2350      	movs	r3, #80	; 0x50
 8002c08:	9301      	str	r3, [sp, #4]
 8002c0a:	9b01      	ldr	r3, [sp, #4]
 8002c0c:	2b50      	cmp	r3, #80	; 0x50
 8002c0e:	d008      	beq.n	8002c22 <xQueueGenericCreateStatic+0x72>
 8002c10:	f04f 0350 	mov.w	r3, #80	; 0x50
 8002c14:	f383 8811 	msr	BASEPRI, r3
 8002c18:	f3bf 8f6f 	isb	sy
 8002c1c:	f3bf 8f4f 	dsb	sy
 8002c20:	e7fe      	b.n	8002c20 <xQueueGenericCreateStatic+0x70>
 8002c22:	2301      	movs	r3, #1
 8002c24:	2900      	cmp	r1, #0
 8002c26:	bf08      	it	eq
 8002c28:	4622      	moveq	r2, r4
 8002c2a:	e9c4 010f 	strd	r0, r1, [r4, #60]	; 0x3c
 8002c2e:	f884 3046 	strb.w	r3, [r4, #70]	; 0x46
 8002c32:	4619      	mov	r1, r3
 8002c34:	6022      	str	r2, [r4, #0]
 8002c36:	4620      	mov	r0, r4
 8002c38:	f7ff ff7a 	bl	8002b30 <xQueueGenericReset>
 8002c3c:	4620      	mov	r0, r4
 8002c3e:	f89d 3010 	ldrb.w	r3, [sp, #16]
 8002c42:	f884 304c 	strb.w	r3, [r4, #76]	; 0x4c
 8002c46:	b002      	add	sp, #8
 8002c48:	bd10      	pop	{r4, pc}

08002c4a <xQueueGenericCreate>:
 8002c4a:	b5f8      	push	{r3, r4, r5, r6, r7, lr}
 8002c4c:	460d      	mov	r5, r1
 8002c4e:	4617      	mov	r7, r2
 8002c50:	4606      	mov	r6, r0
 8002c52:	b940      	cbnz	r0, 8002c66 <xQueueGenericCreate+0x1c>
 8002c54:	f04f 0350 	mov.w	r3, #80	; 0x50
 8002c58:	f383 8811 	msr	BASEPRI, r3
 8002c5c:	f3bf 8f6f 	isb	sy
 8002c60:	f3bf 8f4f 	dsb	sy
 8002c64:	e7fe      	b.n	8002c64 <xQueueGenericCreate+0x1a>
 8002c66:	4348      	muls	r0, r1
 8002c68:	3050      	adds	r0, #80	; 0x50
 8002c6a:	f001 fbe7 	bl	800443c <pvPortMalloc>
 8002c6e:	4604      	mov	r4, r0
 8002c70:	b160      	cbz	r0, 8002c8c <xQueueGenericCreate+0x42>
 8002c72:	2300      	movs	r3, #0
 8002c74:	f880 3046 	strb.w	r3, [r0, #70]	; 0x46
 8002c78:	b955      	cbnz	r5, 8002c90 <xQueueGenericCreate+0x46>
 8002c7a:	6020      	str	r0, [r4, #0]
 8002c7c:	e9c4 650f 	strd	r6, r5, [r4, #60]	; 0x3c
 8002c80:	2101      	movs	r1, #1
 8002c82:	4620      	mov	r0, r4
 8002c84:	f7ff ff54 	bl	8002b30 <xQueueGenericReset>
 8002c88:	f884 704c 	strb.w	r7, [r4, #76]	; 0x4c
 8002c8c:	4620      	mov	r0, r4
 8002c8e:	bdf8      	pop	{r3, r4, r5, r6, r7, pc}
 8002c90:	f100 0350 	add.w	r3, r0, #80	; 0x50
 8002c94:	6003      	str	r3, [r0, #0]
 8002c96:	e7f1      	b.n	8002c7c <xQueueGenericCreate+0x32>

08002c98 <xQueueGenericSend>:
 8002c98:	e92d 47ff 	stmdb	sp!, {r0, r1, r2, r3, r4, r5, r6, r7, r8, r9, sl, lr}
 8002c9c:	4688      	mov	r8, r1
 8002c9e:	9201      	str	r2, [sp, #4]
 8002ca0:	461f      	mov	r7, r3
 8002ca2:	4604      	mov	r4, r0
 8002ca4:	b940      	cbnz	r0, 8002cb8 <xQueueGenericSend+0x20>
 8002ca6:	f04f 0350 	mov.w	r3, #80	; 0x50
 8002caa:	f383 8811 	msr	BASEPRI, r3
 8002cae:	f3bf 8f6f 	isb	sy
 8002cb2:	f3bf 8f4f 	dsb	sy
 8002cb6:	e7fe      	b.n	8002cb6 <xQueueGenericSend+0x1e>
 8002cb8:	b951      	cbnz	r1, 8002cd0 <xQueueGenericSend+0x38>
 8002cba:	6c03      	ldr	r3, [r0, #64]	; 0x40
 8002cbc:	b143      	cbz	r3, 8002cd0 <xQueueGenericSend+0x38>
 8002cbe:	f04f 0350 	mov.w	r3, #80	; 0x50
 8002cc2:	f383 8811 	msr	BASEPRI, r3
 8002cc6:	f3bf 8f6f 	isb	sy
 8002cca:	f3bf 8f4f 	dsb	sy
 8002cce:	e7fe      	b.n	8002cce <xQueueGenericSend+0x36>
 8002cd0:	2f02      	cmp	r7, #2
 8002cd2:	d10b      	bne.n	8002cec <xQueueGenericSend+0x54>
 8002cd4:	6be3      	ldr	r3, [r4, #60]	; 0x3c
 8002cd6:	2b01      	cmp	r3, #1
 8002cd8:	d008      	beq.n	8002cec <xQueueGenericSend+0x54>
 8002cda:	f04f 0350 	mov.w	r3, #80	; 0x50
 8002cde:	f383 8811 	msr	BASEPRI, r3
 8002ce2:	f3bf 8f6f 	isb	sy
 8002ce6:	f3bf 8f4f 	dsb	sy
 8002cea:	e7fe      	b.n	8002cea <xQueueGenericSend+0x52>
 8002cec:	f000 fe4e 	bl	800398c <xTaskGetSchedulerState>
 8002cf0:	b950      	cbnz	r0, 8002d08 <xQueueGenericSend+0x70>
 8002cf2:	9e01      	ldr	r6, [sp, #4]
 8002cf4:	b14e      	cbz	r6, 8002d0a <xQueueGenericSend+0x72>
 8002cf6:	f04f 0350 	mov.w	r3, #80	; 0x50
 8002cfa:	f383 8811 	msr	BASEPRI, r3
 8002cfe:	f3bf 8f6f 	isb	sy
 8002d02:	f3bf 8f4f 	dsb	sy
 8002d06:	e7fe      	b.n	8002d06 <xQueueGenericSend+0x6e>
 8002d08:	2600      	movs	r6, #0
 8002d0a:	f04f 0900 	mov.w	r9, #0
 8002d0e:	f8df a0e8 	ldr.w	sl, [pc, #232]	; 8002df8 <xQueueGenericSend+0x160>
 8002d12:	e037      	b.n	8002d84 <xQueueGenericSend+0xec>
 8002d14:	9d01      	ldr	r5, [sp, #4]
 8002d16:	b91d      	cbnz	r5, 8002d20 <xQueueGenericSend+0x88>
 8002d18:	f001 fa7e 	bl	8004218 <vPortExitCritical>
 8002d1c:	2000      	movs	r0, #0
 8002d1e:	e050      	b.n	8002dc2 <xQueueGenericSend+0x12a>
 8002d20:	b916      	cbnz	r6, 8002d28 <xQueueGenericSend+0x90>
 8002d22:	a802      	add	r0, sp, #8
 8002d24:	f000 fde4 	bl	80038f0 <vTaskInternalSetTimeOutState>
 8002d28:	f001 fa76 	bl	8004218 <vPortExitCritical>
 8002d2c:	f000 fbf4 	bl	8003518 <vTaskSuspendAll>
 8002d30:	f001 fa50 	bl	80041d4 <vPortEnterCritical>
 8002d34:	f894 3044 	ldrb.w	r3, [r4, #68]	; 0x44
 8002d38:	2bff      	cmp	r3, #255	; 0xff
 8002d3a:	bf08      	it	eq
 8002d3c:	f884 9044 	strbeq.w	r9, [r4, #68]	; 0x44
 8002d40:	f894 3045 	ldrb.w	r3, [r4, #69]	; 0x45
 8002d44:	2bff      	cmp	r3, #255	; 0xff
 8002d46:	bf08      	it	eq
 8002d48:	f884 9045 	strbeq.w	r9, [r4, #69]	; 0x45
 8002d4c:	f001 fa64 	bl	8004218 <vPortExitCritical>
 8002d50:	a901      	add	r1, sp, #4
 8002d52:	a802      	add	r0, sp, #8
 8002d54:	f000 fdd8 	bl	8003908 <xTaskCheckForTimeOut>
 8002d58:	2800      	cmp	r0, #0
 8002d5a:	d146      	bne.n	8002dea <xQueueGenericSend+0x152>
 8002d5c:	f001 fa3a 	bl	80041d4 <vPortEnterCritical>
 8002d60:	6ba2      	ldr	r2, [r4, #56]	; 0x38
 8002d62:	6be3      	ldr	r3, [r4, #60]	; 0x3c
 8002d64:	429a      	cmp	r2, r3
 8002d66:	d12f      	bne.n	8002dc8 <xQueueGenericSend+0x130>
 8002d68:	f001 fa56 	bl	8004218 <vPortExitCritical>
 8002d6c:	9901      	ldr	r1, [sp, #4]
 8002d6e:	f104 0010 	add.w	r0, r4, #16
 8002d72:	f000 fd43 	bl	80037fc <vTaskPlaceOnEventList>
 8002d76:	4620      	mov	r0, r4
 8002d78:	f7ff fea2 	bl	8002ac0 <prvUnlockQueue>
 8002d7c:	f000 fc6a 	bl	8003654 <xTaskResumeAll>
 8002d80:	b350      	cbz	r0, 8002dd8 <xQueueGenericSend+0x140>
 8002d82:	2601      	movs	r6, #1
 8002d84:	f001 fa26 	bl	80041d4 <vPortEnterCritical>
 8002d88:	6ba2      	ldr	r2, [r4, #56]	; 0x38
 8002d8a:	6be3      	ldr	r3, [r4, #60]	; 0x3c
 8002d8c:	429a      	cmp	r2, r3
 8002d8e:	d301      	bcc.n	8002d94 <xQueueGenericSend+0xfc>
 8002d90:	2f02      	cmp	r7, #2
 8002d92:	d1bf      	bne.n	8002d14 <xQueueGenericSend+0x7c>
 8002d94:	463a      	mov	r2, r7
 8002d96:	4641      	mov	r1, r8
 8002d98:	4620      	mov	r0, r4
 8002d9a:	f7ff fe4a 	bl	8002a32 <prvCopyDataToQueue>
 8002d9e:	6a63      	ldr	r3, [r4, #36]	; 0x24
 8002da0:	b11b      	cbz	r3, 8002daa <xQueueGenericSend+0x112>
 8002da2:	f104 0024 	add.w	r0, r4, #36	; 0x24
 8002da6:	f000 fd63 	bl	8003870 <xTaskRemoveFromEventList>
 8002daa:	b138      	cbz	r0, 8002dbc <xQueueGenericSend+0x124>
 8002dac:	f04f 5280 	mov.w	r2, #268435456	; 0x10000000
 8002db0:	4b11      	ldr	r3, [pc, #68]	; (8002df8 <xQueueGenericSend+0x160>)
 8002db2:	601a      	str	r2, [r3, #0]
 8002db4:	f3bf 8f4f 	dsb	sy
 8002db8:	f3bf 8f6f 	isb	sy
 8002dbc:	f001 fa2c 	bl	8004218 <vPortExitCritical>
 8002dc0:	2001      	movs	r0, #1
 8002dc2:	b004      	add	sp, #16
 8002dc4:	e8bd 87f0 	ldmia.w	sp!, {r4, r5, r6, r7, r8, r9, sl, pc}
 8002dc8:	f001 fa26 	bl	8004218 <vPortExitCritical>
 8002dcc:	4620      	mov	r0, r4
 8002dce:	f7ff fe77 	bl	8002ac0 <prvUnlockQueue>
 8002dd2:	f000 fc3f 	bl	8003654 <xTaskResumeAll>
 8002dd6:	e7d4      	b.n	8002d82 <xQueueGenericSend+0xea>
 8002dd8:	f04f 5380 	mov.w	r3, #268435456	; 0x10000000
 8002ddc:	f8ca 3000 	str.w	r3, [sl]
 8002de0:	f3bf 8f4f 	dsb	sy
 8002de4:	f3bf 8f6f 	isb	sy
 8002de8:	e7cb      	b.n	8002d82 <xQueueGenericSend+0xea>
 8002dea:	4620      	mov	r0, r4
 8002dec:	f7ff fe68 	bl	8002ac0 <prvUnlockQueue>
 8002df0:	f000 fc30 	bl	8003654 <xTaskResumeAll>
 8002df4:	e792      	b.n	8002d1c <xQueueGenericSend+0x84>
 8002df6:	bf00      	nop
 8002df8:	e000ed04 	.word	0xe000ed04

08002dfc <xQueueGenericSendFromISR>:
 8002dfc:	e92d 43f8 	stmdb	sp!, {r3, r4, r5, r6, r7, r8, r9, lr}
 8002e00:	4689      	mov	r9, r1
 8002e02:	4690      	mov	r8, r2
 8002e04:	461f      	mov	r7, r3
 8002e06:	4604      	mov	r4, r0
 8002e08:	b940      	cbnz	r0, 8002e1c <xQueueGenericSendFromISR+0x20>
 8002e0a:	f04f 0350 	mov.w	r3, #80	; 0x50
 8002e0e:	f383 8811 	msr	BASEPRI, r3
 8002e12:	f3bf 8f6f 	isb	sy
 8002e16:	f3bf 8f4f 	dsb	sy
 8002e1a:	e7fe      	b.n	8002e1a <xQueueGenericSendFromISR+0x1e>
 8002e1c:	b951      	cbnz	r1, 8002e34 <xQueueGenericSendFromISR+0x38>
 8002e1e:	6c03      	ldr	r3, [r0, #64]	; 0x40
 8002e20:	b143      	cbz	r3, 8002e34 <xQueueGenericSendFromISR+0x38>
 8002e22:	f04f 0350 	mov.w	r3, #80	; 0x50
 8002e26:	f383 8811 	msr	BASEPRI, r3
 8002e2a:	f3bf 8f6f 	isb	sy
 8002e2e:	f3bf 8f4f 	dsb	sy
 8002e32:	e7fe      	b.n	8002e32 <xQueueGenericSendFromISR+0x36>
 8002e34:	2f02      	cmp	r7, #2
 8002e36:	d10b      	bne.n	8002e50 <xQueueGenericSendFromISR+0x54>
 8002e38:	6be3      	ldr	r3, [r4, #60]	; 0x3c
 8002e3a:	2b01      	cmp	r3, #1
 8002e3c:	d008      	beq.n	8002e50 <xQueueGenericSendFromISR+0x54>
 8002e3e:	f04f 0350 	mov.w	r3, #80	; 0x50
 8002e42:	f383 8811 	msr	BASEPRI, r3
 8002e46:	f3bf 8f6f 	isb	sy
 8002e4a:	f3bf 8f4f 	dsb	sy
 8002e4e:	e7fe      	b.n	8002e4e <xQueueGenericSendFromISR+0x52>
 8002e50:	f001 faa2 	bl	8004398 <vPortValidateInterruptPriority>
 8002e54:	f3ef 8611 	mrs	r6, BASEPRI
 8002e58:	f04f 0350 	mov.w	r3, #80	; 0x50
 8002e5c:	f383 8811 	msr	BASEPRI, r3
 8002e60:	f3bf 8f6f 	isb	sy
 8002e64:	f3bf 8f4f 	dsb	sy
 8002e68:	6ba2      	ldr	r2, [r4, #56]	; 0x38
 8002e6a:	6be3      	ldr	r3, [r4, #60]	; 0x3c
 8002e6c:	429a      	cmp	r2, r3
 8002e6e:	d301      	bcc.n	8002e74 <xQueueGenericSendFromISR+0x78>
 8002e70:	2f02      	cmp	r7, #2
 8002e72:	d122      	bne.n	8002eba <xQueueGenericSendFromISR+0xbe>
 8002e74:	f894 5045 	ldrb.w	r5, [r4, #69]	; 0x45
 8002e78:	463a      	mov	r2, r7
 8002e7a:	b26d      	sxtb	r5, r5
 8002e7c:	4649      	mov	r1, r9
 8002e7e:	4620      	mov	r0, r4
 8002e80:	f7ff fdd7 	bl	8002a32 <prvCopyDataToQueue>
 8002e84:	1c6b      	adds	r3, r5, #1
 8002e86:	d113      	bne.n	8002eb0 <xQueueGenericSendFromISR+0xb4>
 8002e88:	6a63      	ldr	r3, [r4, #36]	; 0x24
 8002e8a:	b90b      	cbnz	r3, 8002e90 <xQueueGenericSendFromISR+0x94>
 8002e8c:	2001      	movs	r0, #1
 8002e8e:	e00b      	b.n	8002ea8 <xQueueGenericSendFromISR+0xac>
 8002e90:	f104 0024 	add.w	r0, r4, #36	; 0x24
 8002e94:	f000 fcec 	bl	8003870 <xTaskRemoveFromEventList>
 8002e98:	2800      	cmp	r0, #0
 8002e9a:	d0f7      	beq.n	8002e8c <xQueueGenericSendFromISR+0x90>
 8002e9c:	f1b8 0f00 	cmp.w	r8, #0
 8002ea0:	d0f4      	beq.n	8002e8c <xQueueGenericSendFromISR+0x90>
 8002ea2:	2001      	movs	r0, #1
 8002ea4:	f8c8 0000 	str.w	r0, [r8]
 8002ea8:	f386 8811 	msr	BASEPRI, r6
 8002eac:	e8bd 83f8 	ldmia.w	sp!, {r3, r4, r5, r6, r7, r8, r9, pc}
 8002eb0:	3501      	adds	r5, #1
 8002eb2:	b26d      	sxtb	r5, r5
 8002eb4:	f884 5045 	strb.w	r5, [r4, #69]	; 0x45
 8002eb8:	e7e8      	b.n	8002e8c <xQueueGenericSendFromISR+0x90>
 8002eba:	2000      	movs	r0, #0
 8002ebc:	e7f4      	b.n	8002ea8 <xQueueGenericSendFromISR+0xac>
	...

08002ec0 <xQueueReceive>:
 8002ec0:	e92d 43f0 	stmdb	sp!, {r4, r5, r6, r7, r8, r9, lr}
 8002ec4:	b085      	sub	sp, #20
 8002ec6:	460f      	mov	r7, r1
 8002ec8:	9201      	str	r2, [sp, #4]
 8002eca:	4604      	mov	r4, r0
 8002ecc:	b940      	cbnz	r0, 8002ee0 <xQueueReceive+0x20>
 8002ece:	f04f 0350 	mov.w	r3, #80	; 0x50
 8002ed2:	f383 8811 	msr	BASEPRI, r3
 8002ed6:	f3bf 8f6f 	isb	sy
 8002eda:	f3bf 8f4f 	dsb	sy
 8002ede:	e7fe      	b.n	8002ede <xQueueReceive+0x1e>
 8002ee0:	b951      	cbnz	r1, 8002ef8 <xQueueReceive+0x38>
 8002ee2:	6c03      	ldr	r3, [r0, #64]	; 0x40
 8002ee4:	b143      	cbz	r3, 8002ef8 <xQueueReceive+0x38>
 8002ee6:	f04f 0350 	mov.w	r3, #80	; 0x50
 8002eea:	f383 8811 	msr	BASEPRI, r3
 8002eee:	f3bf 8f6f 	isb	sy
 8002ef2:	f3bf 8f4f 	dsb	sy
 8002ef6:	e7fe      	b.n	8002ef6 <xQueueReceive+0x36>
 8002ef8:	f000 fd48 	bl	800398c <xTaskGetSchedulerState>
 8002efc:	b950      	cbnz	r0, 8002f14 <xQueueReceive+0x54>
 8002efe:	9e01      	ldr	r6, [sp, #4]
 8002f00:	b14e      	cbz	r6, 8002f16 <xQueueReceive+0x56>
 8002f02:	f04f 0350 	mov.w	r3, #80	; 0x50
 8002f06:	f383 8811 	msr	BASEPRI, r3
 8002f0a:	f3bf 8f6f 	isb	sy
 8002f0e:	f3bf 8f4f 	dsb	sy
 8002f12:	e7fe      	b.n	8002f12 <xQueueReceive+0x52>
 8002f14:	2600      	movs	r6, #0
 8002f16:	f04f 0800 	mov.w	r8, #0
 8002f1a:	f8df 90e0 	ldr.w	r9, [pc, #224]	; 8002ffc <xQueueReceive+0x13c>
 8002f1e:	e03b      	b.n	8002f98 <xQueueReceive+0xd8>
 8002f20:	9d01      	ldr	r5, [sp, #4]
 8002f22:	b91d      	cbnz	r5, 8002f2c <xQueueReceive+0x6c>
 8002f24:	f001 f978 	bl	8004218 <vPortExitCritical>
 8002f28:	2000      	movs	r0, #0
 8002f2a:	e052      	b.n	8002fd2 <xQueueReceive+0x112>
 8002f2c:	b916      	cbnz	r6, 8002f34 <xQueueReceive+0x74>
 8002f2e:	a802      	add	r0, sp, #8
 8002f30:	f000 fcde 	bl	80038f0 <vTaskInternalSetTimeOutState>
 8002f34:	f001 f970 	bl	8004218 <vPortExitCritical>
 8002f38:	f000 faee 	bl	8003518 <vTaskSuspendAll>
 8002f3c:	f001 f94a 	bl	80041d4 <vPortEnterCritical>
 8002f40:	f894 3044 	ldrb.w	r3, [r4, #68]	; 0x44
 8002f44:	2bff      	cmp	r3, #255	; 0xff
 8002f46:	bf08      	it	eq
 8002f48:	f884 8044 	strbeq.w	r8, [r4, #68]	; 0x44
 8002f4c:	f894 3045 	ldrb.w	r3, [r4, #69]	; 0x45
 8002f50:	2bff      	cmp	r3, #255	; 0xff
 8002f52:	bf08      	it	eq
 8002f54:	f884 8045 	strbeq.w	r8, [r4, #69]	; 0x45
 8002f58:	f001 f95e 	bl	8004218 <vPortExitCritical>
 8002f5c:	a901      	add	r1, sp, #4
 8002f5e:	a802      	add	r0, sp, #8
 8002f60:	f000 fcd2 	bl	8003908 <xTaskCheckForTimeOut>
 8002f64:	2800      	cmp	r0, #0
 8002f66:	d13d      	bne.n	8002fe4 <xQueueReceive+0x124>
 8002f68:	4620      	mov	r0, r4
 8002f6a:	f7ff fd57 	bl	8002a1c <prvIsQueueEmpty>
 8002f6e:	b398      	cbz	r0, 8002fd8 <xQueueReceive+0x118>
 8002f70:	9901      	ldr	r1, [sp, #4]
 8002f72:	f104 0024 	add.w	r0, r4, #36	; 0x24
 8002f76:	f000 fc41 	bl	80037fc <vTaskPlaceOnEventList>
 8002f7a:	4620      	mov	r0, r4
 8002f7c:	f7ff fda0 	bl	8002ac0 <prvUnlockQueue>
 8002f80:	f000 fb68 	bl	8003654 <xTaskResumeAll>
 8002f84:	b938      	cbnz	r0, 8002f96 <xQueueReceive+0xd6>
 8002f86:	f04f 5380 	mov.w	r3, #268435456	; 0x10000000
 8002f8a:	f8c9 3000 	str.w	r3, [r9]
 8002f8e:	f3bf 8f4f 	dsb	sy
 8002f92:	f3bf 8f6f 	isb	sy
 8002f96:	2601      	movs	r6, #1
 8002f98:	f001 f91c 	bl	80041d4 <vPortEnterCritical>
 8002f9c:	6ba5      	ldr	r5, [r4, #56]	; 0x38
 8002f9e:	2d00      	cmp	r5, #0
 8002fa0:	d0be      	beq.n	8002f20 <xQueueReceive+0x60>
 8002fa2:	4639      	mov	r1, r7
 8002fa4:	4620      	mov	r0, r4
 8002fa6:	3d01      	subs	r5, #1
 8002fa8:	f7ff fd76 	bl	8002a98 <prvCopyDataFromQueue>
 8002fac:	63a5      	str	r5, [r4, #56]	; 0x38
 8002fae:	6923      	ldr	r3, [r4, #16]
 8002fb0:	b163      	cbz	r3, 8002fcc <xQueueReceive+0x10c>
 8002fb2:	f104 0010 	add.w	r0, r4, #16
 8002fb6:	f000 fc5b 	bl	8003870 <xTaskRemoveFromEventList>
 8002fba:	b138      	cbz	r0, 8002fcc <xQueueReceive+0x10c>
 8002fbc:	f04f 5280 	mov.w	r2, #268435456	; 0x10000000
 8002fc0:	4b0e      	ldr	r3, [pc, #56]	; (8002ffc <xQueueReceive+0x13c>)
 8002fc2:	601a      	str	r2, [r3, #0]
 8002fc4:	f3bf 8f4f 	dsb	sy
 8002fc8:	f3bf 8f6f 	isb	sy
 8002fcc:	f001 f924 	bl	8004218 <vPortExitCritical>
 8002fd0:	2001      	movs	r0, #1
 8002fd2:	b005      	add	sp, #20
 8002fd4:	e8bd 83f0 	ldmia.w	sp!, {r4, r5, r6, r7, r8, r9, pc}
 8002fd8:	4620      	mov	r0, r4
 8002fda:	f7ff fd71 	bl	8002ac0 <prvUnlockQueue>
 8002fde:	f000 fb39 	bl	8003654 <xTaskResumeAll>
 8002fe2:	e7d8      	b.n	8002f96 <xQueueReceive+0xd6>
 8002fe4:	4620      	mov	r0, r4
 8002fe6:	f7ff fd6b 	bl	8002ac0 <prvUnlockQueue>
 8002fea:	f000 fb33 	bl	8003654 <xTaskResumeAll>
 8002fee:	4620      	mov	r0, r4
 8002ff0:	f7ff fd14 	bl	8002a1c <prvIsQueueEmpty>
 8002ff4:	2800      	cmp	r0, #0
 8002ff6:	d0ce      	beq.n	8002f96 <xQueueReceive+0xd6>
 8002ff8:	e796      	b.n	8002f28 <xQueueReceive+0x68>
 8002ffa:	bf00      	nop
 8002ffc:	e000ed04 	.word	0xe000ed04

08003000 <xQueueReceiveFromISR>:
 8003000:	e92d 43f8 	stmdb	sp!, {r3, r4, r5, r6, r7, r8, r9, lr}
 8003004:	4689      	mov	r9, r1
 8003006:	4690      	mov	r8, r2
 8003008:	4605      	mov	r5, r0
 800300a:	b940      	cbnz	r0, 800301e <xQueueReceiveFromISR+0x1e>
 800300c:	f04f 0350 	mov.w	r3, #80	; 0x50
 8003010:	f383 8811 	msr	BASEPRI, r3
 8003014:	f3bf 8f6f 	isb	sy
 8003018:	f3bf 8f4f 	dsb	sy
 800301c:	e7fe      	b.n	800301c <xQueueReceiveFromISR+0x1c>
 800301e:	b951      	cbnz	r1, 8003036 <xQueueReceiveFromISR+0x36>
 8003020:	6c03      	ldr	r3, [r0, #64]	; 0x40
 8003022:	b143      	cbz	r3, 8003036 <xQueueReceiveFromISR+0x36>
 8003024:	f04f 0350 	mov.w	r3, #80	; 0x50
 8003028:	f383 8811 	msr	BASEPRI, r3
 800302c:	f3bf 8f6f 	isb	sy
 8003030:	f3bf 8f4f 	dsb	sy
 8003034:	e7fe      	b.n	8003034 <xQueueReceiveFromISR+0x34>
 8003036:	f001 f9af 	bl	8004398 <vPortValidateInterruptPriority>
 800303a:	f3ef 8711 	mrs	r7, BASEPRI
 800303e:	f04f 0350 	mov.w	r3, #80	; 0x50
 8003042:	f383 8811 	msr	BASEPRI, r3
 8003046:	f3bf 8f6f 	isb	sy
 800304a:	f3bf 8f4f 	dsb	sy
 800304e:	6bac      	ldr	r4, [r5, #56]	; 0x38
 8003050:	b31c      	cbz	r4, 800309a <xQueueReceiveFromISR+0x9a>
 8003052:	f895 6044 	ldrb.w	r6, [r5, #68]	; 0x44
 8003056:	4649      	mov	r1, r9
 8003058:	b276      	sxtb	r6, r6
 800305a:	4628      	mov	r0, r5
 800305c:	f7ff fd1c 	bl	8002a98 <prvCopyDataFromQueue>
 8003060:	3c01      	subs	r4, #1
 8003062:	1c73      	adds	r3, r6, #1
 8003064:	63ac      	str	r4, [r5, #56]	; 0x38
 8003066:	d113      	bne.n	8003090 <xQueueReceiveFromISR+0x90>
 8003068:	692b      	ldr	r3, [r5, #16]
 800306a:	b90b      	cbnz	r3, 8003070 <xQueueReceiveFromISR+0x70>
 800306c:	2001      	movs	r0, #1
 800306e:	e00b      	b.n	8003088 <xQueueReceiveFromISR+0x88>
 8003070:	f105 0010 	add.w	r0, r5, #16
 8003074:	f000 fbfc 	bl	8003870 <xTaskRemoveFromEventList>
 8003078:	2800      	cmp	r0, #0
 800307a:	d0f7      	beq.n	800306c <xQueueReceiveFromISR+0x6c>
 800307c:	f1b8 0f00 	cmp.w	r8, #0
 8003080:	d0f4      	beq.n	800306c <xQueueReceiveFromISR+0x6c>
 8003082:	2001      	movs	r0, #1
 8003084:	f8c8 0000 	str.w	r0, [r8]
 8003088:	f387 8811 	msr	BASEPRI, r7
 800308c:	e8bd 83f8 	ldmia.w	sp!, {r3, r4, r5, r6, r7, r8, r9, pc}
 8003090:	3601      	adds	r6, #1
 8003092:	b276      	sxtb	r6, r6
 8003094:	f885 6044 	strb.w	r6, [r5, #68]	; 0x44
 8003098:	e7e8      	b.n	800306c <xQueueReceiveFromISR+0x6c>
 800309a:	4620      	mov	r0, r4
 800309c:	e7f4      	b.n	8003088 <xQueueReceiveFromISR+0x88>
	...

080030a0 <vQueueAddToRegistry>:
 80030a0:	2300      	movs	r3, #0
 80030a2:	b530      	push	{r4, r5, lr}
 80030a4:	4a06      	ldr	r2, [pc, #24]	; (80030c0 <vQueueAddToRegistry+0x20>)
 80030a6:	f852 5033 	ldr.w	r5, [r2, r3, lsl #3]
 80030aa:	eb02 04c3 	add.w	r4, r2, r3, lsl #3
 80030ae:	b91d      	cbnz	r5, 80030b8 <vQueueAddToRegistry+0x18>
 80030b0:	f842 1033 	str.w	r1, [r2, r3, lsl #3]
 80030b4:	6060      	str	r0, [r4, #4]
 80030b6:	bd30      	pop	{r4, r5, pc}
 80030b8:	3301      	adds	r3, #1
 80030ba:	2b08      	cmp	r3, #8
 80030bc:	d1f3      	bne.n	80030a6 <vQueueAddToRegistry+0x6>
 80030be:	e7fa      	b.n	80030b6 <vQueueAddToRegistry+0x16>
 80030c0:	20001a60 	.word	0x20001a60

080030c4 <vQueueWaitForMessageRestricted>:
 80030c4:	b570      	push	{r4, r5, r6, lr}
 80030c6:	4604      	mov	r4, r0
 80030c8:	460d      	mov	r5, r1
 80030ca:	4616      	mov	r6, r2
 80030cc:	f001 f882 	bl	80041d4 <vPortEnterCritical>
 80030d0:	f894 3044 	ldrb.w	r3, [r4, #68]	; 0x44
 80030d4:	2bff      	cmp	r3, #255	; 0xff
 80030d6:	bf04      	itt	eq
 80030d8:	2300      	moveq	r3, #0
 80030da:	f884 3044 	strbeq.w	r3, [r4, #68]	; 0x44
 80030de:	f894 3045 	ldrb.w	r3, [r4, #69]	; 0x45
 80030e2:	2bff      	cmp	r3, #255	; 0xff
 80030e4:	bf04      	itt	eq
 80030e6:	2300      	moveq	r3, #0
 80030e8:	f884 3045 	strbeq.w	r3, [r4, #69]	; 0x45
 80030ec:	f001 f894 	bl	8004218 <vPortExitCritical>
 80030f0:	6ba3      	ldr	r3, [r4, #56]	; 0x38
 80030f2:	b92b      	cbnz	r3, 8003100 <vQueueWaitForMessageRestricted+0x3c>
 80030f4:	4632      	mov	r2, r6
 80030f6:	4629      	mov	r1, r5
 80030f8:	f104 0024 	add.w	r0, r4, #36	; 0x24
 80030fc:	f000 fb98 	bl	8003830 <vTaskPlaceOnEventListRestricted>
 8003100:	4620      	mov	r0, r4
 8003102:	e8bd 4070 	ldmia.w	sp!, {r4, r5, r6, lr}
 8003106:	f7ff bcdb 	b.w	8002ac0 <prvUnlockQueue>
	...

0800310c <prvAddNewTaskToReadyList>:
 800310c:	e92d 41f0 	stmdb	sp!, {r4, r5, r6, r7, r8, lr}
 8003110:	4604      	mov	r4, r0
 8003112:	f001 f85f 	bl	80041d4 <vPortEnterCritical>
 8003116:	4b2f      	ldr	r3, [pc, #188]	; (80031d4 <prvAddNewTaskToReadyList+0xc8>)
 8003118:	4d2f      	ldr	r5, [pc, #188]	; (80031d8 <prvAddNewTaskToReadyList+0xcc>)
 800311a:	681a      	ldr	r2, [r3, #0]
 800311c:	4f2f      	ldr	r7, [pc, #188]	; (80031dc <prvAddNewTaskToReadyList+0xd0>)
 800311e:	3201      	adds	r2, #1
 8003120:	601a      	str	r2, [r3, #0]
 8003122:	682e      	ldr	r6, [r5, #0]
 8003124:	2e00      	cmp	r6, #0
 8003126:	d149      	bne.n	80031bc <prvAddNewTaskToReadyList+0xb0>
 8003128:	602c      	str	r4, [r5, #0]
 800312a:	681b      	ldr	r3, [r3, #0]
 800312c:	2b01      	cmp	r3, #1
 800312e:	d11f      	bne.n	8003170 <prvAddNewTaskToReadyList+0x64>
 8003130:	f04f 0814 	mov.w	r8, #20
 8003134:	fb08 7006 	mla	r0, r8, r6, r7
 8003138:	3601      	adds	r6, #1
 800313a:	f7ff fc2d 	bl	8002998 <vListInitialise>
 800313e:	2e38      	cmp	r6, #56	; 0x38
 8003140:	d1f8      	bne.n	8003134 <prvAddNewTaskToReadyList+0x28>
 8003142:	f8df 80c4 	ldr.w	r8, [pc, #196]	; 8003208 <prvAddNewTaskToReadyList+0xfc>
 8003146:	4e26      	ldr	r6, [pc, #152]	; (80031e0 <prvAddNewTaskToReadyList+0xd4>)
 8003148:	4640      	mov	r0, r8
 800314a:	f7ff fc25 	bl	8002998 <vListInitialise>
 800314e:	4630      	mov	r0, r6
 8003150:	f7ff fc22 	bl	8002998 <vListInitialise>
 8003154:	4823      	ldr	r0, [pc, #140]	; (80031e4 <prvAddNewTaskToReadyList+0xd8>)
 8003156:	f7ff fc1f 	bl	8002998 <vListInitialise>
 800315a:	4823      	ldr	r0, [pc, #140]	; (80031e8 <prvAddNewTaskToReadyList+0xdc>)
 800315c:	f7ff fc1c 	bl	8002998 <vListInitialise>
 8003160:	4822      	ldr	r0, [pc, #136]	; (80031ec <prvAddNewTaskToReadyList+0xe0>)
 8003162:	f7ff fc19 	bl	8002998 <vListInitialise>
 8003166:	4b22      	ldr	r3, [pc, #136]	; (80031f0 <prvAddNewTaskToReadyList+0xe4>)
 8003168:	f8c3 8000 	str.w	r8, [r3]
 800316c:	4b21      	ldr	r3, [pc, #132]	; (80031f4 <prvAddNewTaskToReadyList+0xe8>)
 800316e:	601e      	str	r6, [r3, #0]
 8003170:	2014      	movs	r0, #20
 8003172:	4a21      	ldr	r2, [pc, #132]	; (80031f8 <prvAddNewTaskToReadyList+0xec>)
 8003174:	6813      	ldr	r3, [r2, #0]
 8003176:	3301      	adds	r3, #1
 8003178:	6013      	str	r3, [r2, #0]
 800317a:	4a20      	ldr	r2, [pc, #128]	; (80031fc <prvAddNewTaskToReadyList+0xf0>)
 800317c:	6463      	str	r3, [r4, #68]	; 0x44
 800317e:	6811      	ldr	r1, [r2, #0]
 8003180:	6ae3      	ldr	r3, [r4, #44]	; 0x2c
 8003182:	428b      	cmp	r3, r1
 8003184:	fb00 7003 	mla	r0, r0, r3, r7
 8003188:	f104 0104 	add.w	r1, r4, #4
 800318c:	bf88      	it	hi
 800318e:	6013      	strhi	r3, [r2, #0]
 8003190:	f7ff fc10 	bl	80029b4 <vListInsertEnd>
 8003194:	f001 f840 	bl	8004218 <vPortExitCritical>
 8003198:	4b19      	ldr	r3, [pc, #100]	; (8003200 <prvAddNewTaskToReadyList+0xf4>)
 800319a:	681b      	ldr	r3, [r3, #0]
 800319c:	b163      	cbz	r3, 80031b8 <prvAddNewTaskToReadyList+0xac>
 800319e:	682b      	ldr	r3, [r5, #0]
 80031a0:	6ada      	ldr	r2, [r3, #44]	; 0x2c
 80031a2:	6ae3      	ldr	r3, [r4, #44]	; 0x2c
 80031a4:	429a      	cmp	r2, r3
 80031a6:	d207      	bcs.n	80031b8 <prvAddNewTaskToReadyList+0xac>
 80031a8:	f04f 5280 	mov.w	r2, #268435456	; 0x10000000
 80031ac:	4b15      	ldr	r3, [pc, #84]	; (8003204 <prvAddNewTaskToReadyList+0xf8>)
 80031ae:	601a      	str	r2, [r3, #0]
 80031b0:	f3bf 8f4f 	dsb	sy
 80031b4:	f3bf 8f6f 	isb	sy
 80031b8:	e8bd 81f0 	ldmia.w	sp!, {r4, r5, r6, r7, r8, pc}
 80031bc:	4b10      	ldr	r3, [pc, #64]	; (8003200 <prvAddNewTaskToReadyList+0xf4>)
 80031be:	681b      	ldr	r3, [r3, #0]
 80031c0:	2b00      	cmp	r3, #0
 80031c2:	d1d5      	bne.n	8003170 <prvAddNewTaskToReadyList+0x64>
 80031c4:	682b      	ldr	r3, [r5, #0]
 80031c6:	6ada      	ldr	r2, [r3, #44]	; 0x2c
 80031c8:	6ae3      	ldr	r3, [r4, #44]	; 0x2c
 80031ca:	429a      	cmp	r2, r3
 80031cc:	bf98      	it	ls
 80031ce:	602c      	strls	r4, [r5, #0]
 80031d0:	e7ce      	b.n	8003170 <prvAddNewTaskToReadyList+0x64>
 80031d2:	bf00      	nop
 80031d4:	20000b54 	.word	0x20000b54
 80031d8:	200006e8 	.word	0x200006e8
 80031dc:	200006f4 	.word	0x200006f4
 80031e0:	20000b80 	.word	0x20000b80
 80031e4:	20000b9c 	.word	0x20000b9c
 80031e8:	20000bc8 	.word	0x20000bc8
 80031ec:	20000bb4 	.word	0x20000bb4
 80031f0:	200006ec 	.word	0x200006ec
 80031f4:	200006f0 	.word	0x200006f0
 80031f8:	20000b64 	.word	0x20000b64
 80031fc:	20000b68 	.word	0x20000b68
 8003200:	20000bb0 	.word	0x20000bb0
 8003204:	e000ed04 	.word	0xe000ed04
 8003208:	20000b6c 	.word	0x20000b6c

0800320c <prvDeleteTCB>:
 800320c:	b510      	push	{r4, lr}
 800320e:	f890 3059 	ldrb.w	r3, [r0, #89]	; 0x59
 8003212:	4604      	mov	r4, r0
 8003214:	b93b      	cbnz	r3, 8003226 <prvDeleteTCB+0x1a>
 8003216:	6b00      	ldr	r0, [r0, #48]	; 0x30
 8003218:	f001 f99c 	bl	8004554 <vPortFree>
 800321c:	4620      	mov	r0, r4
 800321e:	e8bd 4010 	ldmia.w	sp!, {r4, lr}
 8003222:	f001 b997 	b.w	8004554 <vPortFree>
 8003226:	2b01      	cmp	r3, #1
 8003228:	d0f9      	beq.n	800321e <prvDeleteTCB+0x12>
 800322a:	2b02      	cmp	r3, #2
 800322c:	d008      	beq.n	8003240 <prvDeleteTCB+0x34>
 800322e:	f04f 0350 	mov.w	r3, #80	; 0x50
 8003232:	f383 8811 	msr	BASEPRI, r3
 8003236:	f3bf 8f6f 	isb	sy
 800323a:	f3bf 8f4f 	dsb	sy
 800323e:	e7fe      	b.n	800323e <prvDeleteTCB+0x32>
 8003240:	bd10      	pop	{r4, pc}
	...

08003244 <prvIdleTask>:
 8003244:	b580      	push	{r7, lr}
 8003246:	f8df 805c 	ldr.w	r8, [pc, #92]	; 80032a4 <prvIdleTask+0x60>
 800324a:	4f12      	ldr	r7, [pc, #72]	; (8003294 <prvIdleTask+0x50>)
 800324c:	4c12      	ldr	r4, [pc, #72]	; (8003298 <prvIdleTask+0x54>)
 800324e:	4d13      	ldr	r5, [pc, #76]	; (800329c <prvIdleTask+0x58>)
 8003250:	6823      	ldr	r3, [r4, #0]
 8003252:	b963      	cbnz	r3, 800326e <prvIdleTask+0x2a>
 8003254:	4b12      	ldr	r3, [pc, #72]	; (80032a0 <prvIdleTask+0x5c>)
 8003256:	681b      	ldr	r3, [r3, #0]
 8003258:	2b01      	cmp	r3, #1
 800325a:	d9f8      	bls.n	800324e <prvIdleTask+0xa>
 800325c:	f04f 5380 	mov.w	r3, #268435456	; 0x10000000
 8003260:	f8c8 3000 	str.w	r3, [r8]
 8003264:	f3bf 8f4f 	dsb	sy
 8003268:	f3bf 8f6f 	isb	sy
 800326c:	e7ee      	b.n	800324c <prvIdleTask+0x8>
 800326e:	f000 ffb1 	bl	80041d4 <vPortEnterCritical>
 8003272:	68fb      	ldr	r3, [r7, #12]
 8003274:	68de      	ldr	r6, [r3, #12]
 8003276:	1d30      	adds	r0, r6, #4
 8003278:	f7ff fbbf 	bl	80029fa <uxListRemove>
 800327c:	682b      	ldr	r3, [r5, #0]
 800327e:	3b01      	subs	r3, #1
 8003280:	602b      	str	r3, [r5, #0]
 8003282:	6823      	ldr	r3, [r4, #0]
 8003284:	3b01      	subs	r3, #1
 8003286:	6023      	str	r3, [r4, #0]
 8003288:	f000 ffc6 	bl	8004218 <vPortExitCritical>
 800328c:	4630      	mov	r0, r6
 800328e:	f7ff ffbd 	bl	800320c <prvDeleteTCB>
 8003292:	e7dd      	b.n	8003250 <prvIdleTask+0xc>
 8003294:	20000bc8 	.word	0x20000bc8
 8003298:	20000b58 	.word	0x20000b58
 800329c:	20000b54 	.word	0x20000b54
 80032a0:	200006f4 	.word	0x200006f4
 80032a4:	e000ed04 	.word	0xe000ed04

080032a8 <prvResetNextTaskUnblockTime>:
 80032a8:	4a06      	ldr	r2, [pc, #24]	; (80032c4 <prvResetNextTaskUnblockTime+0x1c>)
 80032aa:	6813      	ldr	r3, [r2, #0]
 80032ac:	6819      	ldr	r1, [r3, #0]
 80032ae:	4b06      	ldr	r3, [pc, #24]	; (80032c8 <prvResetNextTaskUnblockTime+0x20>)
 80032b0:	b919      	cbnz	r1, 80032ba <prvResetNextTaskUnblockTime+0x12>
 80032b2:	f04f 32ff 	mov.w	r2, #4294967295
 80032b6:	601a      	str	r2, [r3, #0]
 80032b8:	4770      	bx	lr
 80032ba:	6812      	ldr	r2, [r2, #0]
 80032bc:	68d2      	ldr	r2, [r2, #12]
 80032be:	68d2      	ldr	r2, [r2, #12]
 80032c0:	6852      	ldr	r2, [r2, #4]
 80032c2:	e7f8      	b.n	80032b6 <prvResetNextTaskUnblockTime+0xe>
 80032c4:	200006ec 	.word	0x200006ec
 80032c8:	20000b94 	.word	0x20000b94

080032cc <prvInitialiseNewTask.isra.2>:
 80032cc:	e92d 47f0 	stmdb	sp!, {r4, r5, r6, r7, r8, r9, sl, lr}
 80032d0:	460d      	mov	r5, r1
 80032d2:	e9dd 7409 	ldrd	r7, r4, [sp, #36]	; 0x24
 80032d6:	0096      	lsls	r6, r2, #2
 80032d8:	4632      	mov	r2, r6
 80032da:	4680      	mov	r8, r0
 80032dc:	21a5      	movs	r1, #165	; 0xa5
 80032de:	6b20      	ldr	r0, [r4, #48]	; 0x30
 80032e0:	4699      	mov	r9, r3
 80032e2:	f001 f99e 	bl	8004622 <memset>
 80032e6:	6b23      	ldr	r3, [r4, #48]	; 0x30
 80032e8:	3e04      	subs	r6, #4
 80032ea:	441e      	add	r6, r3
 80032ec:	f026 0607 	bic.w	r6, r6, #7
 80032f0:	1e6b      	subs	r3, r5, #1
 80032f2:	f104 0234 	add.w	r2, r4, #52	; 0x34
 80032f6:	350f      	adds	r5, #15
 80032f8:	f813 1f01 	ldrb.w	r1, [r3, #1]!
 80032fc:	f802 1b01 	strb.w	r1, [r2], #1
 8003300:	7819      	ldrb	r1, [r3, #0]
 8003302:	b109      	cbz	r1, 8003308 <prvInitialiseNewTask.isra.2+0x3c>
 8003304:	42ab      	cmp	r3, r5
 8003306:	d1f7      	bne.n	80032f8 <prvInitialiseNewTask.isra.2+0x2c>
 8003308:	9d08      	ldr	r5, [sp, #32]
 800330a:	f04f 0a00 	mov.w	sl, #0
 800330e:	2d37      	cmp	r5, #55	; 0x37
 8003310:	bf28      	it	cs
 8003312:	2537      	movcs	r5, #55	; 0x37
 8003314:	1d20      	adds	r0, r4, #4
 8003316:	62e5      	str	r5, [r4, #44]	; 0x2c
 8003318:	e9c4 5a13 	strd	r5, sl, [r4, #76]	; 0x4c
 800331c:	f884 a043 	strb.w	sl, [r4, #67]	; 0x43
 8003320:	f7ff fb45 	bl	80029ae <vListInitialiseItem>
 8003324:	f1c5 0538 	rsb	r5, r5, #56	; 0x38
 8003328:	f104 0018 	add.w	r0, r4, #24
 800332c:	f7ff fb3f 	bl	80029ae <vListInitialiseItem>
 8003330:	f8c4 a054 	str.w	sl, [r4, #84]	; 0x54
 8003334:	6124      	str	r4, [r4, #16]
 8003336:	61a5      	str	r5, [r4, #24]
 8003338:	6264      	str	r4, [r4, #36]	; 0x24
 800333a:	f884 a058 	strb.w	sl, [r4, #88]	; 0x58
 800333e:	464a      	mov	r2, r9
 8003340:	4641      	mov	r1, r8
 8003342:	4630      	mov	r0, r6
 8003344:	f000 ff1e 	bl	8004184 <pxPortInitialiseStack>
 8003348:	6020      	str	r0, [r4, #0]
 800334a:	b107      	cbz	r7, 800334e <prvInitialiseNewTask.isra.2+0x82>
 800334c:	603c      	str	r4, [r7, #0]
 800334e:	e8bd 87f0 	ldmia.w	sp!, {r4, r5, r6, r7, r8, r9, sl, pc}
	...

08003354 <prvAddCurrentTaskToDelayedList>:
 8003354:	b5f8      	push	{r3, r4, r5, r6, r7, lr}
 8003356:	4605      	mov	r5, r0
 8003358:	4b15      	ldr	r3, [pc, #84]	; (80033b0 <prvAddCurrentTaskToDelayedList+0x5c>)
 800335a:	4e16      	ldr	r6, [pc, #88]	; (80033b4 <prvAddCurrentTaskToDelayedList+0x60>)
 800335c:	681c      	ldr	r4, [r3, #0]
 800335e:	6830      	ldr	r0, [r6, #0]
 8003360:	460f      	mov	r7, r1
 8003362:	3004      	adds	r0, #4
 8003364:	f7ff fb49 	bl	80029fa <uxListRemove>
 8003368:	1c6b      	adds	r3, r5, #1
 800336a:	4633      	mov	r3, r6
 800336c:	d107      	bne.n	800337e <prvAddCurrentTaskToDelayedList+0x2a>
 800336e:	b137      	cbz	r7, 800337e <prvAddCurrentTaskToDelayedList+0x2a>
 8003370:	6831      	ldr	r1, [r6, #0]
 8003372:	4811      	ldr	r0, [pc, #68]	; (80033b8 <prvAddCurrentTaskToDelayedList+0x64>)
 8003374:	3104      	adds	r1, #4
 8003376:	e8bd 40f8 	ldmia.w	sp!, {r3, r4, r5, r6, r7, lr}
 800337a:	f7ff bb1b 	b.w	80029b4 <vListInsertEnd>
 800337e:	681a      	ldr	r2, [r3, #0]
 8003380:	1964      	adds	r4, r4, r5
 8003382:	6054      	str	r4, [r2, #4]
 8003384:	d307      	bcc.n	8003396 <prvAddCurrentTaskToDelayedList+0x42>
 8003386:	4a0d      	ldr	r2, [pc, #52]	; (80033bc <prvAddCurrentTaskToDelayedList+0x68>)
 8003388:	6810      	ldr	r0, [r2, #0]
 800338a:	6819      	ldr	r1, [r3, #0]
 800338c:	e8bd 40f8 	ldmia.w	sp!, {r3, r4, r5, r6, r7, lr}
 8003390:	3104      	adds	r1, #4
 8003392:	f7ff bb1b 	b.w	80029cc <vListInsert>
 8003396:	4a0a      	ldr	r2, [pc, #40]	; (80033c0 <prvAddCurrentTaskToDelayedList+0x6c>)
 8003398:	6810      	ldr	r0, [r2, #0]
 800339a:	6819      	ldr	r1, [r3, #0]
 800339c:	3104      	adds	r1, #4
 800339e:	f7ff fb15 	bl	80029cc <vListInsert>
 80033a2:	4b08      	ldr	r3, [pc, #32]	; (80033c4 <prvAddCurrentTaskToDelayedList+0x70>)
 80033a4:	681a      	ldr	r2, [r3, #0]
 80033a6:	42a2      	cmp	r2, r4
 80033a8:	bf88      	it	hi
 80033aa:	601c      	strhi	r4, [r3, #0]
 80033ac:	bdf8      	pop	{r3, r4, r5, r6, r7, pc}
 80033ae:	bf00      	nop
 80033b0:	20000bdc 	.word	0x20000bdc
 80033b4:	200006e8 	.word	0x200006e8
 80033b8:	20000bb4 	.word	0x20000bb4
 80033bc:	200006f0 	.word	0x200006f0
 80033c0:	200006ec 	.word	0x200006ec
 80033c4:	20000b94 	.word	0x20000b94

080033c8 <xTaskCreateStatic>:
 80033c8:	b570      	push	{r4, r5, r6, lr}
 80033ca:	b086      	sub	sp, #24
 80033cc:	e9dd 540b 	ldrd	r5, r4, [sp, #44]	; 0x2c
 80033d0:	b945      	cbnz	r5, 80033e4 <xTaskCreateStatic+0x1c>
 80033d2:	f04f 0350 	mov.w	r3, #80	; 0x50
 80033d6:	f383 8811 	msr	BASEPRI, r3
 80033da:	f3bf 8f6f 	isb	sy
 80033de:	f3bf 8f4f 	dsb	sy
 80033e2:	e7fe      	b.n	80033e2 <xTaskCreateStatic+0x1a>
 80033e4:	b944      	cbnz	r4, 80033f8 <xTaskCreateStatic+0x30>
 80033e6:	f04f 0350 	mov.w	r3, #80	; 0x50
 80033ea:	f383 8811 	msr	BASEPRI, r3
 80033ee:	f3bf 8f6f 	isb	sy
 80033f2:	f3bf 8f4f 	dsb	sy
 80033f6:	e7fe      	b.n	80033f6 <xTaskCreateStatic+0x2e>
 80033f8:	265c      	movs	r6, #92	; 0x5c
 80033fa:	9604      	str	r6, [sp, #16]
 80033fc:	9e04      	ldr	r6, [sp, #16]
 80033fe:	2e5c      	cmp	r6, #92	; 0x5c
 8003400:	d008      	beq.n	8003414 <xTaskCreateStatic+0x4c>
 8003402:	f04f 0350 	mov.w	r3, #80	; 0x50
 8003406:	f383 8811 	msr	BASEPRI, r3
 800340a:	f3bf 8f6f 	isb	sy
 800340e:	f3bf 8f4f 	dsb	sy
 8003412:	e7fe      	b.n	8003412 <xTaskCreateStatic+0x4a>
 8003414:	6325      	str	r5, [r4, #48]	; 0x30
 8003416:	2502      	movs	r5, #2
 8003418:	f884 5059 	strb.w	r5, [r4, #89]	; 0x59
 800341c:	ad05      	add	r5, sp, #20
 800341e:	9501      	str	r5, [sp, #4]
 8003420:	9d0a      	ldr	r5, [sp, #40]	; 0x28
 8003422:	9402      	str	r4, [sp, #8]
 8003424:	9500      	str	r5, [sp, #0]
 8003426:	f7ff ff51 	bl	80032cc <prvInitialiseNewTask.isra.2>
 800342a:	4620      	mov	r0, r4
 800342c:	f7ff fe6e 	bl	800310c <prvAddNewTaskToReadyList>
 8003430:	9805      	ldr	r0, [sp, #20]
 8003432:	b006      	add	sp, #24
 8003434:	bd70      	pop	{r4, r5, r6, pc}

08003436 <xTaskCreate>:
 8003436:	e92d 43f0 	stmdb	sp!, {r4, r5, r6, r7, r8, r9, lr}
 800343a:	4607      	mov	r7, r0
 800343c:	b085      	sub	sp, #20
 800343e:	0090      	lsls	r0, r2, #2
 8003440:	4688      	mov	r8, r1
 8003442:	4616      	mov	r6, r2
 8003444:	4699      	mov	r9, r3
 8003446:	f000 fff9 	bl	800443c <pvPortMalloc>
 800344a:	4605      	mov	r5, r0
 800344c:	b1e8      	cbz	r0, 800348a <xTaskCreate+0x54>
 800344e:	205c      	movs	r0, #92	; 0x5c
 8003450:	f000 fff4 	bl	800443c <pvPortMalloc>
 8003454:	4604      	mov	r4, r0
 8003456:	b1a8      	cbz	r0, 8003484 <xTaskCreate+0x4e>
 8003458:	2300      	movs	r3, #0
 800345a:	f880 3059 	strb.w	r3, [r0, #89]	; 0x59
 800345e:	9b0d      	ldr	r3, [sp, #52]	; 0x34
 8003460:	6305      	str	r5, [r0, #48]	; 0x30
 8003462:	9301      	str	r3, [sp, #4]
 8003464:	9b0c      	ldr	r3, [sp, #48]	; 0x30
 8003466:	9002      	str	r0, [sp, #8]
 8003468:	9300      	str	r3, [sp, #0]
 800346a:	4632      	mov	r2, r6
 800346c:	464b      	mov	r3, r9
 800346e:	4641      	mov	r1, r8
 8003470:	4638      	mov	r0, r7
 8003472:	f7ff ff2b 	bl	80032cc <prvInitialiseNewTask.isra.2>
 8003476:	4620      	mov	r0, r4
 8003478:	f7ff fe48 	bl	800310c <prvAddNewTaskToReadyList>
 800347c:	2001      	movs	r0, #1
 800347e:	b005      	add	sp, #20
 8003480:	e8bd 83f0 	ldmia.w	sp!, {r4, r5, r6, r7, r8, r9, pc}
 8003484:	4628      	mov	r0, r5
 8003486:	f001 f865 	bl	8004554 <vPortFree>
 800348a:	f04f 30ff 	mov.w	r0, #4294967295
 800348e:	e7f6      	b.n	800347e <xTaskCreate+0x48>

08003490 <vTaskStartScheduler>:
 8003490:	b510      	push	{r4, lr}
 8003492:	2400      	movs	r4, #0
 8003494:	b088      	sub	sp, #32
 8003496:	aa07      	add	r2, sp, #28
 8003498:	a906      	add	r1, sp, #24
 800349a:	a805      	add	r0, sp, #20
 800349c:	e9cd 4405 	strd	r4, r4, [sp, #20]
 80034a0:	f7ff fa62 	bl	8002968 <vApplicationGetIdleTaskMemory>
 80034a4:	9b05      	ldr	r3, [sp, #20]
 80034a6:	9a07      	ldr	r2, [sp, #28]
 80034a8:	9302      	str	r3, [sp, #8]
 80034aa:	9b06      	ldr	r3, [sp, #24]
 80034ac:	4915      	ldr	r1, [pc, #84]	; (8003504 <vTaskStartScheduler+0x74>)
 80034ae:	e9cd 4300 	strd	r4, r3, [sp]
 80034b2:	4815      	ldr	r0, [pc, #84]	; (8003508 <vTaskStartScheduler+0x78>)
 80034b4:	4623      	mov	r3, r4
 80034b6:	f7ff ff87 	bl	80033c8 <xTaskCreateStatic>
 80034ba:	b1a8      	cbz	r0, 80034e8 <vTaskStartScheduler+0x58>
 80034bc:	f000 fc36 	bl	8003d2c <xTimerCreateTimerTask>
 80034c0:	2801      	cmp	r0, #1
 80034c2:	d113      	bne.n	80034ec <vTaskStartScheduler+0x5c>
 80034c4:	f04f 0350 	mov.w	r3, #80	; 0x50
 80034c8:	f383 8811 	msr	BASEPRI, r3
 80034cc:	f3bf 8f6f 	isb	sy
 80034d0:	f3bf 8f4f 	dsb	sy
 80034d4:	f04f 32ff 	mov.w	r2, #4294967295
 80034d8:	4b0c      	ldr	r3, [pc, #48]	; (800350c <vTaskStartScheduler+0x7c>)
 80034da:	601a      	str	r2, [r3, #0]
 80034dc:	4b0c      	ldr	r3, [pc, #48]	; (8003510 <vTaskStartScheduler+0x80>)
 80034de:	6018      	str	r0, [r3, #0]
 80034e0:	4b0c      	ldr	r3, [pc, #48]	; (8003514 <vTaskStartScheduler+0x84>)
 80034e2:	601c      	str	r4, [r3, #0]
 80034e4:	f000 fefe 	bl	80042e4 <xPortStartScheduler>
 80034e8:	b008      	add	sp, #32
 80034ea:	bd10      	pop	{r4, pc}
 80034ec:	3001      	adds	r0, #1
 80034ee:	d1fb      	bne.n	80034e8 <vTaskStartScheduler+0x58>
 80034f0:	f04f 0350 	mov.w	r3, #80	; 0x50
 80034f4:	f383 8811 	msr	BASEPRI, r3
 80034f8:	f3bf 8f6f 	isb	sy
 80034fc:	f3bf 8f4f 	dsb	sy
 8003500:	e7fe      	b.n	8003500 <vTaskStartScheduler+0x70>
 8003502:	bf00      	nop
 8003504:	08004790 	.word	0x08004790
 8003508:	08003245 	.word	0x08003245
 800350c:	20000b94 	.word	0x20000b94
 8003510:	20000bb0 	.word	0x20000bb0
 8003514:	20000bdc 	.word	0x20000bdc

08003518 <vTaskSuspendAll>:
 8003518:	4a02      	ldr	r2, [pc, #8]	; (8003524 <vTaskSuspendAll+0xc>)
 800351a:	6813      	ldr	r3, [r2, #0]
 800351c:	3301      	adds	r3, #1
 800351e:	6013      	str	r3, [r2, #0]
 8003520:	4770      	bx	lr
 8003522:	bf00      	nop
 8003524:	20000b60 	.word	0x20000b60

08003528 <xTaskGetTickCount>:
 8003528:	4b01      	ldr	r3, [pc, #4]	; (8003530 <xTaskGetTickCount+0x8>)
 800352a:	6818      	ldr	r0, [r3, #0]
 800352c:	4770      	bx	lr
 800352e:	bf00      	nop
 8003530:	20000bdc 	.word	0x20000bdc

08003534 <xTaskIncrementTick>:
 8003534:	e92d 4ff8 	stmdb	sp!, {r3, r4, r5, r6, r7, r8, r9, sl, fp, lr}
 8003538:	4b3b      	ldr	r3, [pc, #236]	; (8003628 <xTaskIncrementTick+0xf4>)
 800353a:	681b      	ldr	r3, [r3, #0]
 800353c:	2b00      	cmp	r3, #0
 800353e:	d16b      	bne.n	8003618 <xTaskIncrementTick+0xe4>
 8003540:	4b3a      	ldr	r3, [pc, #232]	; (800362c <xTaskIncrementTick+0xf8>)
 8003542:	681c      	ldr	r4, [r3, #0]
 8003544:	3401      	adds	r4, #1
 8003546:	601c      	str	r4, [r3, #0]
 8003548:	b9bc      	cbnz	r4, 800357a <xTaskIncrementTick+0x46>
 800354a:	4b39      	ldr	r3, [pc, #228]	; (8003630 <xTaskIncrementTick+0xfc>)
 800354c:	681a      	ldr	r2, [r3, #0]
 800354e:	6812      	ldr	r2, [r2, #0]
 8003550:	b142      	cbz	r2, 8003564 <xTaskIncrementTick+0x30>
 8003552:	f04f 0350 	mov.w	r3, #80	; 0x50
 8003556:	f383 8811 	msr	BASEPRI, r3
 800355a:	f3bf 8f6f 	isb	sy
 800355e:	f3bf 8f4f 	dsb	sy
 8003562:	e7fe      	b.n	8003562 <xTaskIncrementTick+0x2e>
 8003564:	4a33      	ldr	r2, [pc, #204]	; (8003634 <xTaskIncrementTick+0x100>)
 8003566:	6819      	ldr	r1, [r3, #0]
 8003568:	6810      	ldr	r0, [r2, #0]
 800356a:	6018      	str	r0, [r3, #0]
 800356c:	6011      	str	r1, [r2, #0]
 800356e:	4a32      	ldr	r2, [pc, #200]	; (8003638 <xTaskIncrementTick+0x104>)
 8003570:	6813      	ldr	r3, [r2, #0]
 8003572:	3301      	adds	r3, #1
 8003574:	6013      	str	r3, [r2, #0]
 8003576:	f7ff fe97 	bl	80032a8 <prvResetNextTaskUnblockTime>
 800357a:	4d30      	ldr	r5, [pc, #192]	; (800363c <xTaskIncrementTick+0x108>)
 800357c:	f04f 0b00 	mov.w	fp, #0
 8003580:	682b      	ldr	r3, [r5, #0]
 8003582:	4f2f      	ldr	r7, [pc, #188]	; (8003640 <xTaskIncrementTick+0x10c>)
 8003584:	42a3      	cmp	r3, r4
 8003586:	d911      	bls.n	80035ac <xTaskIncrementTick+0x78>
 8003588:	683a      	ldr	r2, [r7, #0]
 800358a:	4b2e      	ldr	r3, [pc, #184]	; (8003644 <xTaskIncrementTick+0x110>)
 800358c:	6ad1      	ldr	r1, [r2, #44]	; 0x2c
 800358e:	2214      	movs	r2, #20
 8003590:	434a      	muls	r2, r1
 8003592:	589a      	ldr	r2, [r3, r2]
 8003594:	2a02      	cmp	r2, #2
 8003596:	bf28      	it	cs
 8003598:	f04f 0b01 	movcs.w	fp, #1
 800359c:	4a2a      	ldr	r2, [pc, #168]	; (8003648 <xTaskIncrementTick+0x114>)
 800359e:	6812      	ldr	r2, [r2, #0]
 80035a0:	2a00      	cmp	r2, #0
 80035a2:	bf0c      	ite	eq
 80035a4:	4658      	moveq	r0, fp
 80035a6:	2001      	movne	r0, #1
 80035a8:	e8bd 8ff8 	ldmia.w	sp!, {r3, r4, r5, r6, r7, r8, r9, sl, fp, pc}
 80035ac:	f8df 9080 	ldr.w	r9, [pc, #128]	; 8003630 <xTaskIncrementTick+0xfc>
 80035b0:	f8df a09c 	ldr.w	sl, [pc, #156]	; 8003650 <xTaskIncrementTick+0x11c>
 80035b4:	f8d9 2000 	ldr.w	r2, [r9]
 80035b8:	6812      	ldr	r2, [r2, #0]
 80035ba:	b91a      	cbnz	r2, 80035c4 <xTaskIncrementTick+0x90>
 80035bc:	f04f 32ff 	mov.w	r2, #4294967295
 80035c0:	602a      	str	r2, [r5, #0]
 80035c2:	e7e1      	b.n	8003588 <xTaskIncrementTick+0x54>
 80035c4:	f8d9 2000 	ldr.w	r2, [r9]
 80035c8:	68d2      	ldr	r2, [r2, #12]
 80035ca:	68d6      	ldr	r6, [r2, #12]
 80035cc:	6871      	ldr	r1, [r6, #4]
 80035ce:	428c      	cmp	r4, r1
 80035d0:	d201      	bcs.n	80035d6 <xTaskIncrementTick+0xa2>
 80035d2:	6029      	str	r1, [r5, #0]
 80035d4:	e7d8      	b.n	8003588 <xTaskIncrementTick+0x54>
 80035d6:	f106 0804 	add.w	r8, r6, #4
 80035da:	4640      	mov	r0, r8
 80035dc:	f7ff fa0d 	bl	80029fa <uxListRemove>
 80035e0:	6ab1      	ldr	r1, [r6, #40]	; 0x28
 80035e2:	b119      	cbz	r1, 80035ec <xTaskIncrementTick+0xb8>
 80035e4:	f106 0018 	add.w	r0, r6, #24
 80035e8:	f7ff fa07 	bl	80029fa <uxListRemove>
 80035ec:	2214      	movs	r2, #20
 80035ee:	6af0      	ldr	r0, [r6, #44]	; 0x2c
 80035f0:	f8da 1000 	ldr.w	r1, [sl]
 80035f4:	4b13      	ldr	r3, [pc, #76]	; (8003644 <xTaskIncrementTick+0x110>)
 80035f6:	4288      	cmp	r0, r1
 80035f8:	bf88      	it	hi
 80035fa:	f8ca 0000 	strhi.w	r0, [sl]
 80035fe:	4641      	mov	r1, r8
 8003600:	fb02 3000 	mla	r0, r2, r0, r3
 8003604:	f7ff f9d6 	bl	80029b4 <vListInsertEnd>
 8003608:	6838      	ldr	r0, [r7, #0]
 800360a:	6af1      	ldr	r1, [r6, #44]	; 0x2c
 800360c:	6ac2      	ldr	r2, [r0, #44]	; 0x2c
 800360e:	4291      	cmp	r1, r2
 8003610:	bf28      	it	cs
 8003612:	f04f 0b01 	movcs.w	fp, #1
 8003616:	e7cd      	b.n	80035b4 <xTaskIncrementTick+0x80>
 8003618:	4a0c      	ldr	r2, [pc, #48]	; (800364c <xTaskIncrementTick+0x118>)
 800361a:	f04f 0b00 	mov.w	fp, #0
 800361e:	6813      	ldr	r3, [r2, #0]
 8003620:	3301      	adds	r3, #1
 8003622:	6013      	str	r3, [r2, #0]
 8003624:	e7ba      	b.n	800359c <xTaskIncrementTick+0x68>
 8003626:	bf00      	nop
 8003628:	20000b60 	.word	0x20000b60
 800362c:	20000bdc 	.word	0x20000bdc
 8003630:	200006ec 	.word	0x200006ec
 8003634:	200006f0 	.word	0x200006f0
 8003638:	20000b98 	.word	0x20000b98
 800363c:	20000b94 	.word	0x20000b94
 8003640:	200006e8 	.word	0x200006e8
 8003644:	200006f4 	.word	0x200006f4
 8003648:	20000be0 	.word	0x20000be0
 800364c:	20000b5c 	.word	0x20000b5c
 8003650:	20000b68 	.word	0x20000b68

08003654 <xTaskResumeAll>:
 8003654:	e92d 41f0 	stmdb	sp!, {r4, r5, r6, r7, r8, lr}
 8003658:	4c2f      	ldr	r4, [pc, #188]	; (8003718 <xTaskResumeAll+0xc4>)
 800365a:	6823      	ldr	r3, [r4, #0]
 800365c:	b943      	cbnz	r3, 8003670 <xTaskResumeAll+0x1c>
 800365e:	f04f 0350 	mov.w	r3, #80	; 0x50
 8003662:	f383 8811 	msr	BASEPRI, r3
 8003666:	f3bf 8f6f 	isb	sy
 800366a:	f3bf 8f4f 	dsb	sy
 800366e:	e7fe      	b.n	800366e <xTaskResumeAll+0x1a>
 8003670:	f000 fdb0 	bl	80041d4 <vPortEnterCritical>
 8003674:	6823      	ldr	r3, [r4, #0]
 8003676:	3b01      	subs	r3, #1
 8003678:	6023      	str	r3, [r4, #0]
 800367a:	6824      	ldr	r4, [r4, #0]
 800367c:	b12c      	cbz	r4, 800368a <xTaskResumeAll+0x36>
 800367e:	2400      	movs	r4, #0
 8003680:	f000 fdca 	bl	8004218 <vPortExitCritical>
 8003684:	4620      	mov	r0, r4
 8003686:	e8bd 81f0 	ldmia.w	sp!, {r4, r5, r6, r7, r8, pc}
 800368a:	4b24      	ldr	r3, [pc, #144]	; (800371c <xTaskResumeAll+0xc8>)
 800368c:	681b      	ldr	r3, [r3, #0]
 800368e:	2b00      	cmp	r3, #0
 8003690:	d0f5      	beq.n	800367e <xTaskResumeAll+0x2a>
 8003692:	4d23      	ldr	r5, [pc, #140]	; (8003720 <xTaskResumeAll+0xcc>)
 8003694:	4e23      	ldr	r6, [pc, #140]	; (8003724 <xTaskResumeAll+0xd0>)
 8003696:	f8df 80a0 	ldr.w	r8, [pc, #160]	; 8003738 <xTaskResumeAll+0xe4>
 800369a:	e01d      	b.n	80036d8 <xTaskResumeAll+0x84>
 800369c:	68eb      	ldr	r3, [r5, #12]
 800369e:	68dc      	ldr	r4, [r3, #12]
 80036a0:	1d27      	adds	r7, r4, #4
 80036a2:	f104 0018 	add.w	r0, r4, #24
 80036a6:	f7ff f9a8 	bl	80029fa <uxListRemove>
 80036aa:	4638      	mov	r0, r7
 80036ac:	f7ff f9a5 	bl	80029fa <uxListRemove>
 80036b0:	2014      	movs	r0, #20
 80036b2:	6ae3      	ldr	r3, [r4, #44]	; 0x2c
 80036b4:	6832      	ldr	r2, [r6, #0]
 80036b6:	fb00 8003 	mla	r0, r0, r3, r8
 80036ba:	4293      	cmp	r3, r2
 80036bc:	4639      	mov	r1, r7
 80036be:	bf88      	it	hi
 80036c0:	6033      	strhi	r3, [r6, #0]
 80036c2:	f7ff f977 	bl	80029b4 <vListInsertEnd>
 80036c6:	4b18      	ldr	r3, [pc, #96]	; (8003728 <xTaskResumeAll+0xd4>)
 80036c8:	6ae2      	ldr	r2, [r4, #44]	; 0x2c
 80036ca:	681b      	ldr	r3, [r3, #0]
 80036cc:	6adb      	ldr	r3, [r3, #44]	; 0x2c
 80036ce:	429a      	cmp	r2, r3
 80036d0:	d302      	bcc.n	80036d8 <xTaskResumeAll+0x84>
 80036d2:	2201      	movs	r2, #1
 80036d4:	4b15      	ldr	r3, [pc, #84]	; (800372c <xTaskResumeAll+0xd8>)
 80036d6:	601a      	str	r2, [r3, #0]
 80036d8:	682b      	ldr	r3, [r5, #0]
 80036da:	2b00      	cmp	r3, #0
 80036dc:	d1de      	bne.n	800369c <xTaskResumeAll+0x48>
 80036de:	b10c      	cbz	r4, 80036e4 <xTaskResumeAll+0x90>
 80036e0:	f7ff fde2 	bl	80032a8 <prvResetNextTaskUnblockTime>
 80036e4:	4d12      	ldr	r5, [pc, #72]	; (8003730 <xTaskResumeAll+0xdc>)
 80036e6:	682c      	ldr	r4, [r5, #0]
 80036e8:	b144      	cbz	r4, 80036fc <xTaskResumeAll+0xa8>
 80036ea:	2701      	movs	r7, #1
 80036ec:	4e0f      	ldr	r6, [pc, #60]	; (800372c <xTaskResumeAll+0xd8>)
 80036ee:	f7ff ff21 	bl	8003534 <xTaskIncrementTick>
 80036f2:	b100      	cbz	r0, 80036f6 <xTaskResumeAll+0xa2>
 80036f4:	6037      	str	r7, [r6, #0]
 80036f6:	3c01      	subs	r4, #1
 80036f8:	d1f9      	bne.n	80036ee <xTaskResumeAll+0x9a>
 80036fa:	602c      	str	r4, [r5, #0]
 80036fc:	4b0b      	ldr	r3, [pc, #44]	; (800372c <xTaskResumeAll+0xd8>)
 80036fe:	681b      	ldr	r3, [r3, #0]
 8003700:	2b00      	cmp	r3, #0
 8003702:	d0bc      	beq.n	800367e <xTaskResumeAll+0x2a>
 8003704:	f04f 5280 	mov.w	r2, #268435456	; 0x10000000
 8003708:	4b0a      	ldr	r3, [pc, #40]	; (8003734 <xTaskResumeAll+0xe0>)
 800370a:	601a      	str	r2, [r3, #0]
 800370c:	f3bf 8f4f 	dsb	sy
 8003710:	f3bf 8f6f 	isb	sy
 8003714:	2401      	movs	r4, #1
 8003716:	e7b3      	b.n	8003680 <xTaskResumeAll+0x2c>
 8003718:	20000b60 	.word	0x20000b60
 800371c:	20000b54 	.word	0x20000b54
 8003720:	20000b9c 	.word	0x20000b9c
 8003724:	20000b68 	.word	0x20000b68
 8003728:	200006e8 	.word	0x200006e8
 800372c:	20000be0 	.word	0x20000be0
 8003730:	20000b5c 	.word	0x20000b5c
 8003734:	e000ed04 	.word	0xe000ed04
 8003738:	200006f4 	.word	0x200006f4

0800373c <vTaskDelay>:
 800373c:	b508      	push	{r3, lr}
 800373e:	b940      	cbnz	r0, 8003752 <vTaskDelay+0x16>
 8003740:	f04f 5280 	mov.w	r2, #268435456	; 0x10000000
 8003744:	4b0d      	ldr	r3, [pc, #52]	; (800377c <vTaskDelay+0x40>)
 8003746:	601a      	str	r2, [r3, #0]
 8003748:	f3bf 8f4f 	dsb	sy
 800374c:	f3bf 8f6f 	isb	sy
 8003750:	bd08      	pop	{r3, pc}
 8003752:	4b0b      	ldr	r3, [pc, #44]	; (8003780 <vTaskDelay+0x44>)
 8003754:	6819      	ldr	r1, [r3, #0]
 8003756:	b141      	cbz	r1, 800376a <vTaskDelay+0x2e>
 8003758:	f04f 0350 	mov.w	r3, #80	; 0x50
 800375c:	f383 8811 	msr	BASEPRI, r3
 8003760:	f3bf 8f6f 	isb	sy
 8003764:	f3bf 8f4f 	dsb	sy
 8003768:	e7fe      	b.n	8003768 <vTaskDelay+0x2c>
 800376a:	f7ff fed5 	bl	8003518 <vTaskSuspendAll>
 800376e:	f7ff fdf1 	bl	8003354 <prvAddCurrentTaskToDelayedList>
 8003772:	f7ff ff6f 	bl	8003654 <xTaskResumeAll>
 8003776:	2800      	cmp	r0, #0
 8003778:	d0e2      	beq.n	8003740 <vTaskDelay+0x4>
 800377a:	e7e9      	b.n	8003750 <vTaskDelay+0x14>
 800377c:	e000ed04 	.word	0xe000ed04
 8003780:	20000b60 	.word	0x20000b60

08003784 <vTaskSwitchContext>:
 8003784:	4b18      	ldr	r3, [pc, #96]	; (80037e8 <vTaskSwitchContext+0x64>)
 8003786:	b5f0      	push	{r4, r5, r6, r7, lr}
 8003788:	681a      	ldr	r2, [r3, #0]
 800378a:	4b18      	ldr	r3, [pc, #96]	; (80037ec <vTaskSwitchContext+0x68>)
 800378c:	b112      	cbz	r2, 8003794 <vTaskSwitchContext+0x10>
 800378e:	2201      	movs	r2, #1
 8003790:	601a      	str	r2, [r3, #0]
 8003792:	bdf0      	pop	{r4, r5, r6, r7, pc}
 8003794:	601a      	str	r2, [r3, #0]
 8003796:	4a16      	ldr	r2, [pc, #88]	; (80037f0 <vTaskSwitchContext+0x6c>)
 8003798:	2714      	movs	r7, #20
 800379a:	4616      	mov	r6, r2
 800379c:	4d15      	ldr	r5, [pc, #84]	; (80037f4 <vTaskSwitchContext+0x70>)
 800379e:	682b      	ldr	r3, [r5, #0]
 80037a0:	fb07 f103 	mul.w	r1, r7, r3
 80037a4:	5854      	ldr	r4, [r2, r1]
 80037a6:	1850      	adds	r0, r2, r1
 80037a8:	b194      	cbz	r4, 80037d0 <vTaskSwitchContext+0x4c>
 80037aa:	6844      	ldr	r4, [r0, #4]
 80037ac:	3108      	adds	r1, #8
 80037ae:	6864      	ldr	r4, [r4, #4]
 80037b0:	440a      	add	r2, r1
 80037b2:	4294      	cmp	r4, r2
 80037b4:	bf08      	it	eq
 80037b6:	6862      	ldreq	r2, [r4, #4]
 80037b8:	6044      	str	r4, [r0, #4]
 80037ba:	bf08      	it	eq
 80037bc:	6042      	streq	r2, [r0, #4]
 80037be:	2214      	movs	r2, #20
 80037c0:	fb02 6203 	mla	r2, r2, r3, r6
 80037c4:	6852      	ldr	r2, [r2, #4]
 80037c6:	68d1      	ldr	r1, [r2, #12]
 80037c8:	4a0b      	ldr	r2, [pc, #44]	; (80037f8 <vTaskSwitchContext+0x74>)
 80037ca:	6011      	str	r1, [r2, #0]
 80037cc:	602b      	str	r3, [r5, #0]
 80037ce:	e7e0      	b.n	8003792 <vTaskSwitchContext+0xe>
 80037d0:	b943      	cbnz	r3, 80037e4 <vTaskSwitchContext+0x60>
 80037d2:	f04f 0350 	mov.w	r3, #80	; 0x50
 80037d6:	f383 8811 	msr	BASEPRI, r3
 80037da:	f3bf 8f6f 	isb	sy
 80037de:	f3bf 8f4f 	dsb	sy
 80037e2:	e7fe      	b.n	80037e2 <vTaskSwitchContext+0x5e>
 80037e4:	3b01      	subs	r3, #1
 80037e6:	e7db      	b.n	80037a0 <vTaskSwitchContext+0x1c>
 80037e8:	20000b60 	.word	0x20000b60
 80037ec:	20000be0 	.word	0x20000be0
 80037f0:	200006f4 	.word	0x200006f4
 80037f4:	20000b68 	.word	0x20000b68
 80037f8:	200006e8 	.word	0x200006e8

080037fc <vTaskPlaceOnEventList>:
 80037fc:	b510      	push	{r4, lr}
 80037fe:	460c      	mov	r4, r1
 8003800:	b940      	cbnz	r0, 8003814 <vTaskPlaceOnEventList+0x18>
 8003802:	f04f 0350 	mov.w	r3, #80	; 0x50
 8003806:	f383 8811 	msr	BASEPRI, r3
 800380a:	f3bf 8f6f 	isb	sy
 800380e:	f3bf 8f4f 	dsb	sy
 8003812:	e7fe      	b.n	8003812 <vTaskPlaceOnEventList+0x16>
 8003814:	4b05      	ldr	r3, [pc, #20]	; (800382c <vTaskPlaceOnEventList+0x30>)
 8003816:	6819      	ldr	r1, [r3, #0]
 8003818:	3118      	adds	r1, #24
 800381a:	f7ff f8d7 	bl	80029cc <vListInsert>
 800381e:	4620      	mov	r0, r4
 8003820:	e8bd 4010 	ldmia.w	sp!, {r4, lr}
 8003824:	2101      	movs	r1, #1
 8003826:	f7ff bd95 	b.w	8003354 <prvAddCurrentTaskToDelayedList>
 800382a:	bf00      	nop
 800382c:	200006e8 	.word	0x200006e8

08003830 <vTaskPlaceOnEventListRestricted>:
 8003830:	b538      	push	{r3, r4, r5, lr}
 8003832:	460d      	mov	r5, r1
 8003834:	4614      	mov	r4, r2
 8003836:	b940      	cbnz	r0, 800384a <vTaskPlaceOnEventListRestricted+0x1a>
 8003838:	f04f 0350 	mov.w	r3, #80	; 0x50
 800383c:	f383 8811 	msr	BASEPRI, r3
 8003840:	f3bf 8f6f 	isb	sy
 8003844:	f3bf 8f4f 	dsb	sy
 8003848:	e7fe      	b.n	8003848 <vTaskPlaceOnEventListRestricted+0x18>
 800384a:	4b08      	ldr	r3, [pc, #32]	; (800386c <vTaskPlaceOnEventListRestricted+0x3c>)
 800384c:	6819      	ldr	r1, [r3, #0]
 800384e:	3118      	adds	r1, #24
 8003850:	f7ff f8b0 	bl	80029b4 <vListInsertEnd>
 8003854:	2c00      	cmp	r4, #0
 8003856:	4621      	mov	r1, r4
 8003858:	bf08      	it	eq
 800385a:	4628      	moveq	r0, r5
 800385c:	e8bd 4038 	ldmia.w	sp!, {r3, r4, r5, lr}
 8003860:	bf18      	it	ne
 8003862:	f04f 30ff 	movne.w	r0, #4294967295
 8003866:	f7ff bd75 	b.w	8003354 <prvAddCurrentTaskToDelayedList>
 800386a:	bf00      	nop
 800386c:	200006e8 	.word	0x200006e8

08003870 <xTaskRemoveFromEventList>:
 8003870:	b538      	push	{r3, r4, r5, lr}
 8003872:	68c3      	ldr	r3, [r0, #12]
 8003874:	68dc      	ldr	r4, [r3, #12]
 8003876:	b944      	cbnz	r4, 800388a <xTaskRemoveFromEventList+0x1a>
 8003878:	f04f 0350 	mov.w	r3, #80	; 0x50
 800387c:	f383 8811 	msr	BASEPRI, r3
 8003880:	f3bf 8f6f 	isb	sy
 8003884:	f3bf 8f4f 	dsb	sy
 8003888:	e7fe      	b.n	8003888 <xTaskRemoveFromEventList+0x18>
 800388a:	f104 0518 	add.w	r5, r4, #24
 800388e:	4628      	mov	r0, r5
 8003890:	f7ff f8b3 	bl	80029fa <uxListRemove>
 8003894:	4b10      	ldr	r3, [pc, #64]	; (80038d8 <xTaskRemoveFromEventList+0x68>)
 8003896:	681b      	ldr	r3, [r3, #0]
 8003898:	b9db      	cbnz	r3, 80038d2 <xTaskRemoveFromEventList+0x62>
 800389a:	1d25      	adds	r5, r4, #4
 800389c:	4628      	mov	r0, r5
 800389e:	f7ff f8ac 	bl	80029fa <uxListRemove>
 80038a2:	4a0e      	ldr	r2, [pc, #56]	; (80038dc <xTaskRemoveFromEventList+0x6c>)
 80038a4:	2014      	movs	r0, #20
 80038a6:	6811      	ldr	r1, [r2, #0]
 80038a8:	6ae3      	ldr	r3, [r4, #44]	; 0x2c
 80038aa:	428b      	cmp	r3, r1
 80038ac:	4629      	mov	r1, r5
 80038ae:	bf88      	it	hi
 80038b0:	6013      	strhi	r3, [r2, #0]
 80038b2:	4a0b      	ldr	r2, [pc, #44]	; (80038e0 <xTaskRemoveFromEventList+0x70>)
 80038b4:	fb00 2003 	mla	r0, r0, r3, r2
 80038b8:	f7ff f87c 	bl	80029b4 <vListInsertEnd>
 80038bc:	4b09      	ldr	r3, [pc, #36]	; (80038e4 <xTaskRemoveFromEventList+0x74>)
 80038be:	6ae2      	ldr	r2, [r4, #44]	; 0x2c
 80038c0:	681b      	ldr	r3, [r3, #0]
 80038c2:	6adb      	ldr	r3, [r3, #44]	; 0x2c
 80038c4:	429a      	cmp	r2, r3
 80038c6:	bf85      	ittet	hi
 80038c8:	2001      	movhi	r0, #1
 80038ca:	4b07      	ldrhi	r3, [pc, #28]	; (80038e8 <xTaskRemoveFromEventList+0x78>)
 80038cc:	2000      	movls	r0, #0
 80038ce:	6018      	strhi	r0, [r3, #0]
 80038d0:	bd38      	pop	{r3, r4, r5, pc}
 80038d2:	4629      	mov	r1, r5
 80038d4:	4805      	ldr	r0, [pc, #20]	; (80038ec <xTaskRemoveFromEventList+0x7c>)
 80038d6:	e7ef      	b.n	80038b8 <xTaskRemoveFromEventList+0x48>
 80038d8:	20000b60 	.word	0x20000b60
 80038dc:	20000b68 	.word	0x20000b68
 80038e0:	200006f4 	.word	0x200006f4
 80038e4:	200006e8 	.word	0x200006e8
 80038e8:	20000be0 	.word	0x20000be0
 80038ec:	20000b9c 	.word	0x20000b9c

080038f0 <vTaskInternalSetTimeOutState>:
 80038f0:	4b03      	ldr	r3, [pc, #12]	; (8003900 <vTaskInternalSetTimeOutState+0x10>)
 80038f2:	681b      	ldr	r3, [r3, #0]
 80038f4:	6003      	str	r3, [r0, #0]
 80038f6:	4b03      	ldr	r3, [pc, #12]	; (8003904 <vTaskInternalSetTimeOutState+0x14>)
 80038f8:	681b      	ldr	r3, [r3, #0]
 80038fa:	6043      	str	r3, [r0, #4]
 80038fc:	4770      	bx	lr
 80038fe:	bf00      	nop
 8003900:	20000b98 	.word	0x20000b98
 8003904:	20000bdc 	.word	0x20000bdc

08003908 <xTaskCheckForTimeOut>:
 8003908:	b5f8      	push	{r3, r4, r5, r6, r7, lr}
 800390a:	460c      	mov	r4, r1
 800390c:	4605      	mov	r5, r0
 800390e:	b940      	cbnz	r0, 8003922 <xTaskCheckForTimeOut+0x1a>
 8003910:	f04f 0350 	mov.w	r3, #80	; 0x50
 8003914:	f383 8811 	msr	BASEPRI, r3
 8003918:	f3bf 8f6f 	isb	sy
 800391c:	f3bf 8f4f 	dsb	sy
 8003920:	e7fe      	b.n	8003920 <xTaskCheckForTimeOut+0x18>
 8003922:	b941      	cbnz	r1, 8003936 <xTaskCheckForTimeOut+0x2e>
 8003924:	f04f 0350 	mov.w	r3, #80	; 0x50
 8003928:	f383 8811 	msr	BASEPRI, r3
 800392c:	f3bf 8f6f 	isb	sy
 8003930:	f3bf 8f4f 	dsb	sy
 8003934:	e7fe      	b.n	8003934 <xTaskCheckForTimeOut+0x2c>
 8003936:	f000 fc4d 	bl	80041d4 <vPortEnterCritical>
 800393a:	4b0f      	ldr	r3, [pc, #60]	; (8003978 <xTaskCheckForTimeOut+0x70>)
 800393c:	6868      	ldr	r0, [r5, #4]
 800393e:	6819      	ldr	r1, [r3, #0]
 8003940:	6823      	ldr	r3, [r4, #0]
 8003942:	1a0a      	subs	r2, r1, r0
 8003944:	1c5e      	adds	r6, r3, #1
 8003946:	d00d      	beq.n	8003964 <xTaskCheckForTimeOut+0x5c>
 8003948:	4e0c      	ldr	r6, [pc, #48]	; (800397c <xTaskCheckForTimeOut+0x74>)
 800394a:	682f      	ldr	r7, [r5, #0]
 800394c:	6836      	ldr	r6, [r6, #0]
 800394e:	42b7      	cmp	r7, r6
 8003950:	d001      	beq.n	8003956 <xTaskCheckForTimeOut+0x4e>
 8003952:	4288      	cmp	r0, r1
 8003954:	d90d      	bls.n	8003972 <xTaskCheckForTimeOut+0x6a>
 8003956:	4293      	cmp	r3, r2
 8003958:	d909      	bls.n	800396e <xTaskCheckForTimeOut+0x66>
 800395a:	1a9b      	subs	r3, r3, r2
 800395c:	6023      	str	r3, [r4, #0]
 800395e:	4628      	mov	r0, r5
 8003960:	f7ff ffc6 	bl	80038f0 <vTaskInternalSetTimeOutState>
 8003964:	2400      	movs	r4, #0
 8003966:	f000 fc57 	bl	8004218 <vPortExitCritical>
 800396a:	4620      	mov	r0, r4
 800396c:	bdf8      	pop	{r3, r4, r5, r6, r7, pc}
 800396e:	2300      	movs	r3, #0
 8003970:	6023      	str	r3, [r4, #0]
 8003972:	2401      	movs	r4, #1
 8003974:	e7f7      	b.n	8003966 <xTaskCheckForTimeOut+0x5e>
 8003976:	bf00      	nop
 8003978:	20000bdc 	.word	0x20000bdc
 800397c:	20000b98 	.word	0x20000b98

08003980 <vTaskMissedYield>:
 8003980:	2201      	movs	r2, #1
 8003982:	4b01      	ldr	r3, [pc, #4]	; (8003988 <vTaskMissedYield+0x8>)
 8003984:	601a      	str	r2, [r3, #0]
 8003986:	4770      	bx	lr
 8003988:	20000be0 	.word	0x20000be0

0800398c <xTaskGetSchedulerState>:
 800398c:	4b05      	ldr	r3, [pc, #20]	; (80039a4 <xTaskGetSchedulerState+0x18>)
 800398e:	681b      	ldr	r3, [r3, #0]
 8003990:	b133      	cbz	r3, 80039a0 <xTaskGetSchedulerState+0x14>
 8003992:	4b05      	ldr	r3, [pc, #20]	; (80039a8 <xTaskGetSchedulerState+0x1c>)
 8003994:	681b      	ldr	r3, [r3, #0]
 8003996:	2b00      	cmp	r3, #0
 8003998:	bf0c      	ite	eq
 800399a:	2002      	moveq	r0, #2
 800399c:	2000      	movne	r0, #0
 800399e:	4770      	bx	lr
 80039a0:	2001      	movs	r0, #1
 80039a2:	4770      	bx	lr
 80039a4:	20000bb0 	.word	0x20000bb0
 80039a8:	20000b60 	.word	0x20000b60

080039ac <xTaskPriorityDisinherit>:
 80039ac:	b538      	push	{r3, r4, r5, lr}
 80039ae:	b908      	cbnz	r0, 80039b4 <xTaskPriorityDisinherit+0x8>
 80039b0:	2000      	movs	r0, #0
 80039b2:	bd38      	pop	{r3, r4, r5, pc}
 80039b4:	4b1b      	ldr	r3, [pc, #108]	; (8003a24 <xTaskPriorityDisinherit+0x78>)
 80039b6:	681c      	ldr	r4, [r3, #0]
 80039b8:	4284      	cmp	r4, r0
 80039ba:	d008      	beq.n	80039ce <xTaskPriorityDisinherit+0x22>
 80039bc:	f04f 0350 	mov.w	r3, #80	; 0x50
 80039c0:	f383 8811 	msr	BASEPRI, r3
 80039c4:	f3bf 8f6f 	isb	sy
 80039c8:	f3bf 8f4f 	dsb	sy
 80039cc:	e7fe      	b.n	80039cc <xTaskPriorityDisinherit+0x20>
 80039ce:	6d23      	ldr	r3, [r4, #80]	; 0x50
 80039d0:	b943      	cbnz	r3, 80039e4 <xTaskPriorityDisinherit+0x38>
 80039d2:	f04f 0350 	mov.w	r3, #80	; 0x50
 80039d6:	f383 8811 	msr	BASEPRI, r3
 80039da:	f3bf 8f6f 	isb	sy
 80039de:	f3bf 8f4f 	dsb	sy
 80039e2:	e7fe      	b.n	80039e2 <xTaskPriorityDisinherit+0x36>
 80039e4:	6ae1      	ldr	r1, [r4, #44]	; 0x2c
 80039e6:	6ce2      	ldr	r2, [r4, #76]	; 0x4c
 80039e8:	3b01      	subs	r3, #1
 80039ea:	4291      	cmp	r1, r2
 80039ec:	6523      	str	r3, [r4, #80]	; 0x50
 80039ee:	d0df      	beq.n	80039b0 <xTaskPriorityDisinherit+0x4>
 80039f0:	2b00      	cmp	r3, #0
 80039f2:	d1dd      	bne.n	80039b0 <xTaskPriorityDisinherit+0x4>
 80039f4:	1d25      	adds	r5, r4, #4
 80039f6:	4628      	mov	r0, r5
 80039f8:	f7fe ffff 	bl	80029fa <uxListRemove>
 80039fc:	2014      	movs	r0, #20
 80039fe:	6ce3      	ldr	r3, [r4, #76]	; 0x4c
 8003a00:	f1c3 0238 	rsb	r2, r3, #56	; 0x38
 8003a04:	61a2      	str	r2, [r4, #24]
 8003a06:	4a08      	ldr	r2, [pc, #32]	; (8003a28 <xTaskPriorityDisinherit+0x7c>)
 8003a08:	62e3      	str	r3, [r4, #44]	; 0x2c
 8003a0a:	6811      	ldr	r1, [r2, #0]
 8003a0c:	428b      	cmp	r3, r1
 8003a0e:	bf88      	it	hi
 8003a10:	6013      	strhi	r3, [r2, #0]
 8003a12:	4a06      	ldr	r2, [pc, #24]	; (8003a2c <xTaskPriorityDisinherit+0x80>)
 8003a14:	4629      	mov	r1, r5
 8003a16:	fb00 2003 	mla	r0, r0, r3, r2
 8003a1a:	f7fe ffcb 	bl	80029b4 <vListInsertEnd>
 8003a1e:	2001      	movs	r0, #1
 8003a20:	e7c7      	b.n	80039b2 <xTaskPriorityDisinherit+0x6>
 8003a22:	bf00      	nop
 8003a24:	200006e8 	.word	0x200006e8
 8003a28:	20000b68 	.word	0x20000b68
 8003a2c:	200006f4 	.word	0x200006f4

08003a30 <xTaskNotifyWait>:
 8003a30:	e92d 41f0 	stmdb	sp!, {r4, r5, r6, r7, r8, lr}
 8003a34:	4c1e      	ldr	r4, [pc, #120]	; (8003ab0 <xTaskNotifyWait+0x80>)
 8003a36:	461e      	mov	r6, r3
 8003a38:	4680      	mov	r8, r0
 8003a3a:	460f      	mov	r7, r1
 8003a3c:	4615      	mov	r5, r2
 8003a3e:	f000 fbc9 	bl	80041d4 <vPortEnterCritical>
 8003a42:	6823      	ldr	r3, [r4, #0]
 8003a44:	f893 3058 	ldrb.w	r3, [r3, #88]	; 0x58
 8003a48:	2b02      	cmp	r3, #2
 8003a4a:	d014      	beq.n	8003a76 <xTaskNotifyWait+0x46>
 8003a4c:	2101      	movs	r1, #1
 8003a4e:	6823      	ldr	r3, [r4, #0]
 8003a50:	6d5a      	ldr	r2, [r3, #84]	; 0x54
 8003a52:	ea22 0208 	bic.w	r2, r2, r8
 8003a56:	655a      	str	r2, [r3, #84]	; 0x54
 8003a58:	6823      	ldr	r3, [r4, #0]
 8003a5a:	f883 1058 	strb.w	r1, [r3, #88]	; 0x58
 8003a5e:	b156      	cbz	r6, 8003a76 <xTaskNotifyWait+0x46>
 8003a60:	4630      	mov	r0, r6
 8003a62:	f7ff fc77 	bl	8003354 <prvAddCurrentTaskToDelayedList>
 8003a66:	f04f 5280 	mov.w	r2, #268435456	; 0x10000000
 8003a6a:	4b12      	ldr	r3, [pc, #72]	; (8003ab4 <xTaskNotifyWait+0x84>)
 8003a6c:	601a      	str	r2, [r3, #0]
 8003a6e:	f3bf 8f4f 	dsb	sy
 8003a72:	f3bf 8f6f 	isb	sy
 8003a76:	f000 fbcf 	bl	8004218 <vPortExitCritical>
 8003a7a:	f000 fbab 	bl	80041d4 <vPortEnterCritical>
 8003a7e:	b115      	cbz	r5, 8003a86 <xTaskNotifyWait+0x56>
 8003a80:	6823      	ldr	r3, [r4, #0]
 8003a82:	6d5b      	ldr	r3, [r3, #84]	; 0x54
 8003a84:	602b      	str	r3, [r5, #0]
 8003a86:	6823      	ldr	r3, [r4, #0]
 8003a88:	2200      	movs	r2, #0
 8003a8a:	f893 3058 	ldrb.w	r3, [r3, #88]	; 0x58
 8003a8e:	2b02      	cmp	r3, #2
 8003a90:	bf09      	itett	eq
 8003a92:	2501      	moveq	r5, #1
 8003a94:	2500      	movne	r5, #0
 8003a96:	6823      	ldreq	r3, [r4, #0]
 8003a98:	6d59      	ldreq	r1, [r3, #84]	; 0x54
 8003a9a:	bf04      	itt	eq
 8003a9c:	43b9      	biceq	r1, r7
 8003a9e:	6559      	streq	r1, [r3, #84]	; 0x54
 8003aa0:	6823      	ldr	r3, [r4, #0]
 8003aa2:	f883 2058 	strb.w	r2, [r3, #88]	; 0x58
 8003aa6:	f000 fbb7 	bl	8004218 <vPortExitCritical>
 8003aaa:	4628      	mov	r0, r5
 8003aac:	e8bd 81f0 	ldmia.w	sp!, {r4, r5, r6, r7, r8, pc}
 8003ab0:	200006e8 	.word	0x200006e8
 8003ab4:	e000ed04 	.word	0xe000ed04

08003ab8 <xTaskGenericNotify>:
 8003ab8:	b5f8      	push	{r3, r4, r5, r6, r7, lr}
 8003aba:	460e      	mov	r6, r1
 8003abc:	4615      	mov	r5, r2
 8003abe:	461f      	mov	r7, r3
 8003ac0:	4604      	mov	r4, r0
 8003ac2:	b940      	cbnz	r0, 8003ad6 <xTaskGenericNotify+0x1e>
 8003ac4:	f04f 0350 	mov.w	r3, #80	; 0x50
 8003ac8:	f383 8811 	msr	BASEPRI, r3
 8003acc:	f3bf 8f6f 	isb	sy
 8003ad0:	f3bf 8f4f 	dsb	sy
 8003ad4:	e7fe      	b.n	8003ad4 <xTaskGenericNotify+0x1c>
 8003ad6:	f000 fb7d 	bl	80041d4 <vPortEnterCritical>
 8003ada:	b10f      	cbz	r7, 8003ae0 <xTaskGenericNotify+0x28>
 8003adc:	6d63      	ldr	r3, [r4, #84]	; 0x54
 8003ade:	603b      	str	r3, [r7, #0]
 8003ae0:	2202      	movs	r2, #2
 8003ae2:	f894 3058 	ldrb.w	r3, [r4, #88]	; 0x58
 8003ae6:	f884 2058 	strb.w	r2, [r4, #88]	; 0x58
 8003aea:	1e6a      	subs	r2, r5, #1
 8003aec:	b2db      	uxtb	r3, r3
 8003aee:	2a03      	cmp	r2, #3
 8003af0:	d80a      	bhi.n	8003b08 <xTaskGenericNotify+0x50>
 8003af2:	e8df f002 	tbb	[pc, r2]
 8003af6:	0602      	.short	0x0602
 8003af8:	1004      	.short	0x1004
 8003afa:	6d61      	ldr	r1, [r4, #84]	; 0x54
 8003afc:	430e      	orrs	r6, r1
 8003afe:	6566      	str	r6, [r4, #84]	; 0x54
 8003b00:	e002      	b.n	8003b08 <xTaskGenericNotify+0x50>
 8003b02:	6d62      	ldr	r2, [r4, #84]	; 0x54
 8003b04:	3201      	adds	r2, #1
 8003b06:	6562      	str	r2, [r4, #84]	; 0x54
 8003b08:	2b01      	cmp	r3, #1
 8003b0a:	d008      	beq.n	8003b1e <xTaskGenericNotify+0x66>
 8003b0c:	2401      	movs	r4, #1
 8003b0e:	f000 fb83 	bl	8004218 <vPortExitCritical>
 8003b12:	4620      	mov	r0, r4
 8003b14:	bdf8      	pop	{r3, r4, r5, r6, r7, pc}
 8003b16:	2b02      	cmp	r3, #2
 8003b18:	d1f1      	bne.n	8003afe <xTaskGenericNotify+0x46>
 8003b1a:	2400      	movs	r4, #0
 8003b1c:	e7f7      	b.n	8003b0e <xTaskGenericNotify+0x56>
 8003b1e:	1d25      	adds	r5, r4, #4
 8003b20:	4628      	mov	r0, r5
 8003b22:	f7fe ff6a 	bl	80029fa <uxListRemove>
 8003b26:	2014      	movs	r0, #20
 8003b28:	4a12      	ldr	r2, [pc, #72]	; (8003b74 <xTaskGenericNotify+0xbc>)
 8003b2a:	6ae3      	ldr	r3, [r4, #44]	; 0x2c
 8003b2c:	6811      	ldr	r1, [r2, #0]
 8003b2e:	428b      	cmp	r3, r1
 8003b30:	bf88      	it	hi
 8003b32:	6013      	strhi	r3, [r2, #0]
 8003b34:	4a10      	ldr	r2, [pc, #64]	; (8003b78 <xTaskGenericNotify+0xc0>)
 8003b36:	4629      	mov	r1, r5
 8003b38:	fb00 2003 	mla	r0, r0, r3, r2
 8003b3c:	f7fe ff3a 	bl	80029b4 <vListInsertEnd>
 8003b40:	6aa3      	ldr	r3, [r4, #40]	; 0x28
 8003b42:	b143      	cbz	r3, 8003b56 <xTaskGenericNotify+0x9e>
 8003b44:	f04f 0350 	mov.w	r3, #80	; 0x50
 8003b48:	f383 8811 	msr	BASEPRI, r3
 8003b4c:	f3bf 8f6f 	isb	sy
 8003b50:	f3bf 8f4f 	dsb	sy
 8003b54:	e7fe      	b.n	8003b54 <xTaskGenericNotify+0x9c>
 8003b56:	4b09      	ldr	r3, [pc, #36]	; (8003b7c <xTaskGenericNotify+0xc4>)
 8003b58:	6ae2      	ldr	r2, [r4, #44]	; 0x2c
 8003b5a:	681b      	ldr	r3, [r3, #0]
 8003b5c:	6adb      	ldr	r3, [r3, #44]	; 0x2c
 8003b5e:	429a      	cmp	r2, r3
 8003b60:	d9d4      	bls.n	8003b0c <xTaskGenericNotify+0x54>
 8003b62:	f04f 5280 	mov.w	r2, #268435456	; 0x10000000
 8003b66:	4b06      	ldr	r3, [pc, #24]	; (8003b80 <xTaskGenericNotify+0xc8>)
 8003b68:	601a      	str	r2, [r3, #0]
 8003b6a:	f3bf 8f4f 	dsb	sy
 8003b6e:	f3bf 8f6f 	isb	sy
 8003b72:	e7cb      	b.n	8003b0c <xTaskGenericNotify+0x54>
 8003b74:	20000b68 	.word	0x20000b68
 8003b78:	200006f4 	.word	0x200006f4
 8003b7c:	200006e8 	.word	0x200006e8
 8003b80:	e000ed04 	.word	0xe000ed04

08003b84 <xTaskGenericNotifyFromISR>:
 8003b84:	e92d 43f8 	stmdb	sp!, {r3, r4, r5, r6, r7, r8, r9, lr}
 8003b88:	9f08      	ldr	r7, [sp, #32]
 8003b8a:	4688      	mov	r8, r1
 8003b8c:	4615      	mov	r5, r2
 8003b8e:	4699      	mov	r9, r3
 8003b90:	4604      	mov	r4, r0
 8003b92:	b940      	cbnz	r0, 8003ba6 <xTaskGenericNotifyFromISR+0x22>
 8003b94:	f04f 0350 	mov.w	r3, #80	; 0x50
 8003b98:	f383 8811 	msr	BASEPRI, r3
 8003b9c:	f3bf 8f6f 	isb	sy
 8003ba0:	f3bf 8f4f 	dsb	sy
 8003ba4:	e7fe      	b.n	8003ba4 <xTaskGenericNotifyFromISR+0x20>
 8003ba6:	f000 fbf7 	bl	8004398 <vPortValidateInterruptPriority>
 8003baa:	f3ef 8611 	mrs	r6, BASEPRI
 8003bae:	f04f 0350 	mov.w	r3, #80	; 0x50
 8003bb2:	f383 8811 	msr	BASEPRI, r3
 8003bb6:	f3bf 8f6f 	isb	sy
 8003bba:	f3bf 8f4f 	dsb	sy
 8003bbe:	f1b9 0f00 	cmp.w	r9, #0
 8003bc2:	d002      	beq.n	8003bca <xTaskGenericNotifyFromISR+0x46>
 8003bc4:	6d63      	ldr	r3, [r4, #84]	; 0x54
 8003bc6:	f8c9 3000 	str.w	r3, [r9]
 8003bca:	2202      	movs	r2, #2
 8003bcc:	f894 3058 	ldrb.w	r3, [r4, #88]	; 0x58
 8003bd0:	f884 2058 	strb.w	r2, [r4, #88]	; 0x58
 8003bd4:	1e6a      	subs	r2, r5, #1
 8003bd6:	b2db      	uxtb	r3, r3
 8003bd8:	2a03      	cmp	r2, #3
 8003bda:	d807      	bhi.n	8003bec <xTaskGenericNotifyFromISR+0x68>
 8003bdc:	e8df f002 	tbb	[pc, r2]
 8003be0:	11130d02 	.word	0x11130d02
 8003be4:	6d61      	ldr	r1, [r4, #84]	; 0x54
 8003be6:	ea41 0108 	orr.w	r1, r1, r8
 8003bea:	6561      	str	r1, [r4, #84]	; 0x54
 8003bec:	2b01      	cmp	r3, #1
 8003bee:	d00d      	beq.n	8003c0c <xTaskGenericNotifyFromISR+0x88>
 8003bf0:	2001      	movs	r0, #1
 8003bf2:	f386 8811 	msr	BASEPRI, r6
 8003bf6:	e8bd 83f8 	ldmia.w	sp!, {r3, r4, r5, r6, r7, r8, r9, pc}
 8003bfa:	6d62      	ldr	r2, [r4, #84]	; 0x54
 8003bfc:	3201      	adds	r2, #1
 8003bfe:	6562      	str	r2, [r4, #84]	; 0x54
 8003c00:	e7f4      	b.n	8003bec <xTaskGenericNotifyFromISR+0x68>
 8003c02:	2b02      	cmp	r3, #2
 8003c04:	d032      	beq.n	8003c6c <xTaskGenericNotifyFromISR+0xe8>
 8003c06:	f8c4 8054 	str.w	r8, [r4, #84]	; 0x54
 8003c0a:	e7ef      	b.n	8003bec <xTaskGenericNotifyFromISR+0x68>
 8003c0c:	6aa3      	ldr	r3, [r4, #40]	; 0x28
 8003c0e:	b143      	cbz	r3, 8003c22 <xTaskGenericNotifyFromISR+0x9e>
 8003c10:	f04f 0350 	mov.w	r3, #80	; 0x50
 8003c14:	f383 8811 	msr	BASEPRI, r3
 8003c18:	f3bf 8f6f 	isb	sy
 8003c1c:	f3bf 8f4f 	dsb	sy
 8003c20:	e7fe      	b.n	8003c20 <xTaskGenericNotifyFromISR+0x9c>
 8003c22:	4b13      	ldr	r3, [pc, #76]	; (8003c70 <xTaskGenericNotifyFromISR+0xec>)
 8003c24:	681b      	ldr	r3, [r3, #0]
 8003c26:	b9d3      	cbnz	r3, 8003c5e <xTaskGenericNotifyFromISR+0xda>
 8003c28:	1d25      	adds	r5, r4, #4
 8003c2a:	4628      	mov	r0, r5
 8003c2c:	f7fe fee5 	bl	80029fa <uxListRemove>
 8003c30:	4a10      	ldr	r2, [pc, #64]	; (8003c74 <xTaskGenericNotifyFromISR+0xf0>)
 8003c32:	2014      	movs	r0, #20
 8003c34:	6811      	ldr	r1, [r2, #0]
 8003c36:	6ae3      	ldr	r3, [r4, #44]	; 0x2c
 8003c38:	428b      	cmp	r3, r1
 8003c3a:	4629      	mov	r1, r5
 8003c3c:	bf88      	it	hi
 8003c3e:	6013      	strhi	r3, [r2, #0]
 8003c40:	4a0d      	ldr	r2, [pc, #52]	; (8003c78 <xTaskGenericNotifyFromISR+0xf4>)
 8003c42:	fb00 2003 	mla	r0, r0, r3, r2
 8003c46:	f7fe feb5 	bl	80029b4 <vListInsertEnd>
 8003c4a:	4b0c      	ldr	r3, [pc, #48]	; (8003c7c <xTaskGenericNotifyFromISR+0xf8>)
 8003c4c:	6ae2      	ldr	r2, [r4, #44]	; 0x2c
 8003c4e:	681b      	ldr	r3, [r3, #0]
 8003c50:	6adb      	ldr	r3, [r3, #44]	; 0x2c
 8003c52:	429a      	cmp	r2, r3
 8003c54:	d9cc      	bls.n	8003bf0 <xTaskGenericNotifyFromISR+0x6c>
 8003c56:	2001      	movs	r0, #1
 8003c58:	b12f      	cbz	r7, 8003c66 <xTaskGenericNotifyFromISR+0xe2>
 8003c5a:	6038      	str	r0, [r7, #0]
 8003c5c:	e7c9      	b.n	8003bf2 <xTaskGenericNotifyFromISR+0x6e>
 8003c5e:	f104 0118 	add.w	r1, r4, #24
 8003c62:	4807      	ldr	r0, [pc, #28]	; (8003c80 <xTaskGenericNotifyFromISR+0xfc>)
 8003c64:	e7ef      	b.n	8003c46 <xTaskGenericNotifyFromISR+0xc2>
 8003c66:	4b07      	ldr	r3, [pc, #28]	; (8003c84 <xTaskGenericNotifyFromISR+0x100>)
 8003c68:	6018      	str	r0, [r3, #0]
 8003c6a:	e7c2      	b.n	8003bf2 <xTaskGenericNotifyFromISR+0x6e>
 8003c6c:	2000      	movs	r0, #0
 8003c6e:	e7c0      	b.n	8003bf2 <xTaskGenericNotifyFromISR+0x6e>
 8003c70:	20000b60 	.word	0x20000b60
 8003c74:	20000b68 	.word	0x20000b68
 8003c78:	200006f4 	.word	0x200006f4
 8003c7c:	200006e8 	.word	0x200006e8
 8003c80:	20000b9c 	.word	0x20000b9c
 8003c84:	20000be0 	.word	0x20000be0

08003c88 <prvCheckForValidListAndQueue>:
 8003c88:	b5f7      	push	{r0, r1, r2, r4, r5, r6, r7, lr}
 8003c8a:	4c11      	ldr	r4, [pc, #68]	; (8003cd0 <prvCheckForValidListAndQueue+0x48>)
 8003c8c:	f000 faa2 	bl	80041d4 <vPortEnterCritical>
 8003c90:	6825      	ldr	r5, [r4, #0]
 8003c92:	b9bd      	cbnz	r5, 8003cc4 <prvCheckForValidListAndQueue+0x3c>
 8003c94:	4f0f      	ldr	r7, [pc, #60]	; (8003cd4 <prvCheckForValidListAndQueue+0x4c>)
 8003c96:	4e10      	ldr	r6, [pc, #64]	; (8003cd8 <prvCheckForValidListAndQueue+0x50>)
 8003c98:	4638      	mov	r0, r7
 8003c9a:	f7fe fe7d 	bl	8002998 <vListInitialise>
 8003c9e:	4630      	mov	r0, r6
 8003ca0:	f7fe fe7a 	bl	8002998 <vListInitialise>
 8003ca4:	4b0d      	ldr	r3, [pc, #52]	; (8003cdc <prvCheckForValidListAndQueue+0x54>)
 8003ca6:	4a0e      	ldr	r2, [pc, #56]	; (8003ce0 <prvCheckForValidListAndQueue+0x58>)
 8003ca8:	601f      	str	r7, [r3, #0]
 8003caa:	4b0e      	ldr	r3, [pc, #56]	; (8003ce4 <prvCheckForValidListAndQueue+0x5c>)
 8003cac:	2110      	movs	r1, #16
 8003cae:	601e      	str	r6, [r3, #0]
 8003cb0:	200a      	movs	r0, #10
 8003cb2:	9500      	str	r5, [sp, #0]
 8003cb4:	4b0c      	ldr	r3, [pc, #48]	; (8003ce8 <prvCheckForValidListAndQueue+0x60>)
 8003cb6:	f7fe ff7b 	bl	8002bb0 <xQueueGenericCreateStatic>
 8003cba:	6020      	str	r0, [r4, #0]
 8003cbc:	b110      	cbz	r0, 8003cc4 <prvCheckForValidListAndQueue+0x3c>
 8003cbe:	490b      	ldr	r1, [pc, #44]	; (8003cec <prvCheckForValidListAndQueue+0x64>)
 8003cc0:	f7ff f9ee 	bl	80030a0 <vQueueAddToRegistry>
 8003cc4:	b003      	add	sp, #12
 8003cc6:	e8bd 40f0 	ldmia.w	sp!, {r4, r5, r6, r7, lr}
 8003cca:	f000 baa5 	b.w	8004218 <vPortExitCritical>
 8003cce:	bf00      	nop
 8003cd0:	20000d08 	.word	0x20000d08
 8003cd4:	20000c8c 	.word	0x20000c8c
 8003cd8:	20000ca0 	.word	0x20000ca0
 8003cdc:	20000be4 	.word	0x20000be4
 8003ce0:	20000bec 	.word	0x20000bec
 8003ce4:	20000be8 	.word	0x20000be8
 8003ce8:	20000cb8 	.word	0x20000cb8
 8003cec:	08004795 	.word	0x08004795

08003cf0 <prvInsertTimerInActiveList>:
 8003cf0:	4291      	cmp	r1, r2
 8003cf2:	b508      	push	{r3, lr}
 8003cf4:	6041      	str	r1, [r0, #4]
 8003cf6:	6100      	str	r0, [r0, #16]
 8003cf8:	d80a      	bhi.n	8003d10 <prvInsertTimerInActiveList+0x20>
 8003cfa:	1ad2      	subs	r2, r2, r3
 8003cfc:	6983      	ldr	r3, [r0, #24]
 8003cfe:	429a      	cmp	r2, r3
 8003d00:	d20d      	bcs.n	8003d1e <prvInsertTimerInActiveList+0x2e>
 8003d02:	4b08      	ldr	r3, [pc, #32]	; (8003d24 <prvInsertTimerInActiveList+0x34>)
 8003d04:	1d01      	adds	r1, r0, #4
 8003d06:	6818      	ldr	r0, [r3, #0]
 8003d08:	f7fe fe60 	bl	80029cc <vListInsert>
 8003d0c:	2000      	movs	r0, #0
 8003d0e:	bd08      	pop	{r3, pc}
 8003d10:	429a      	cmp	r2, r3
 8003d12:	d201      	bcs.n	8003d18 <prvInsertTimerInActiveList+0x28>
 8003d14:	4299      	cmp	r1, r3
 8003d16:	d202      	bcs.n	8003d1e <prvInsertTimerInActiveList+0x2e>
 8003d18:	1d01      	adds	r1, r0, #4
 8003d1a:	4b03      	ldr	r3, [pc, #12]	; (8003d28 <prvInsertTimerInActiveList+0x38>)
 8003d1c:	e7f3      	b.n	8003d06 <prvInsertTimerInActiveList+0x16>
 8003d1e:	2001      	movs	r0, #1
 8003d20:	e7f5      	b.n	8003d0e <prvInsertTimerInActiveList+0x1e>
 8003d22:	bf00      	nop
 8003d24:	20000be8 	.word	0x20000be8
 8003d28:	20000be4 	.word	0x20000be4

08003d2c <xTimerCreateTimerTask>:
 8003d2c:	b510      	push	{r4, lr}
 8003d2e:	b088      	sub	sp, #32
 8003d30:	f7ff ffaa 	bl	8003c88 <prvCheckForValidListAndQueue>
 8003d34:	4b12      	ldr	r3, [pc, #72]	; (8003d80 <xTimerCreateTimerTask+0x54>)
 8003d36:	681b      	ldr	r3, [r3, #0]
 8003d38:	b1b3      	cbz	r3, 8003d68 <xTimerCreateTimerTask+0x3c>
 8003d3a:	2400      	movs	r4, #0
 8003d3c:	aa07      	add	r2, sp, #28
 8003d3e:	a906      	add	r1, sp, #24
 8003d40:	a805      	add	r0, sp, #20
 8003d42:	e9cd 4405 	strd	r4, r4, [sp, #20]
 8003d46:	f7fe fe1b 	bl	8002980 <vApplicationGetTimerTaskMemory>
 8003d4a:	9b05      	ldr	r3, [sp, #20]
 8003d4c:	9a07      	ldr	r2, [sp, #28]
 8003d4e:	9302      	str	r3, [sp, #8]
 8003d50:	9b06      	ldr	r3, [sp, #24]
 8003d52:	490c      	ldr	r1, [pc, #48]	; (8003d84 <xTimerCreateTimerTask+0x58>)
 8003d54:	9301      	str	r3, [sp, #4]
 8003d56:	2302      	movs	r3, #2
 8003d58:	480b      	ldr	r0, [pc, #44]	; (8003d88 <xTimerCreateTimerTask+0x5c>)
 8003d5a:	9300      	str	r3, [sp, #0]
 8003d5c:	4623      	mov	r3, r4
 8003d5e:	f7ff fb33 	bl	80033c8 <xTaskCreateStatic>
 8003d62:	4b0a      	ldr	r3, [pc, #40]	; (8003d8c <xTimerCreateTimerTask+0x60>)
 8003d64:	6018      	str	r0, [r3, #0]
 8003d66:	b940      	cbnz	r0, 8003d7a <xTimerCreateTimerTask+0x4e>
 8003d68:	f04f 0350 	mov.w	r3, #80	; 0x50
 8003d6c:	f383 8811 	msr	BASEPRI, r3
 8003d70:	f3bf 8f6f 	isb	sy
 8003d74:	f3bf 8f4f 	dsb	sy
 8003d78:	e7fe      	b.n	8003d78 <xTimerCreateTimerTask+0x4c>
 8003d7a:	2001      	movs	r0, #1
 8003d7c:	b008      	add	sp, #32
 8003d7e:	bd10      	pop	{r4, pc}
 8003d80:	20000d08 	.word	0x20000d08
 8003d84:	0800479a 	.word	0x0800479a
 8003d88:	08003f2d 	.word	0x08003f2d
 8003d8c:	20000d0c 	.word	0x20000d0c

08003d90 <xTimerCreate>:
 8003d90:	e92d 41f0 	stmdb	sp!, {r4, r5, r6, r7, r8, lr}
 8003d94:	4680      	mov	r8, r0
 8003d96:	2030      	movs	r0, #48	; 0x30
 8003d98:	460d      	mov	r5, r1
 8003d9a:	4617      	mov	r7, r2
 8003d9c:	461e      	mov	r6, r3
 8003d9e:	f000 fb4d 	bl	800443c <pvPortMalloc>
 8003da2:	4604      	mov	r4, r0
 8003da4:	b1c0      	cbz	r0, 8003dd8 <xTimerCreate+0x48>
 8003da6:	b945      	cbnz	r5, 8003dba <xTimerCreate+0x2a>
 8003da8:	f04f 0350 	mov.w	r3, #80	; 0x50
 8003dac:	f383 8811 	msr	BASEPRI, r3
 8003db0:	f3bf 8f6f 	isb	sy
 8003db4:	f3bf 8f4f 	dsb	sy
 8003db8:	e7fe      	b.n	8003db8 <xTimerCreate+0x28>
 8003dba:	f7ff ff65 	bl	8003c88 <prvCheckForValidListAndQueue>
 8003dbe:	9b06      	ldr	r3, [sp, #24]
 8003dc0:	f8c4 8000 	str.w	r8, [r4]
 8003dc4:	6263      	str	r3, [r4, #36]	; 0x24
 8003dc6:	e9c4 5706 	strd	r5, r7, [r4, #24]
 8003dca:	6226      	str	r6, [r4, #32]
 8003dcc:	1d20      	adds	r0, r4, #4
 8003dce:	f7fe fdee 	bl	80029ae <vListInitialiseItem>
 8003dd2:	2300      	movs	r3, #0
 8003dd4:	f884 302c 	strb.w	r3, [r4, #44]	; 0x2c
 8003dd8:	4620      	mov	r0, r4
 8003dda:	e8bd 81f0 	ldmia.w	sp!, {r4, r5, r6, r7, r8, pc}

08003dde <xTimerCreateStatic>:
 8003dde:	e92d 41f3 	stmdb	sp!, {r0, r1, r4, r5, r6, r7, r8, lr}
 8003de2:	461e      	mov	r6, r3
 8003de4:	2330      	movs	r3, #48	; 0x30
 8003de6:	9301      	str	r3, [sp, #4]
 8003de8:	9b01      	ldr	r3, [sp, #4]
 8003dea:	4680      	mov	r8, r0
 8003dec:	2b30      	cmp	r3, #48	; 0x30
 8003dee:	460d      	mov	r5, r1
 8003df0:	4617      	mov	r7, r2
 8003df2:	9c09      	ldr	r4, [sp, #36]	; 0x24
 8003df4:	d008      	beq.n	8003e08 <xTimerCreateStatic+0x2a>
 8003df6:	f04f 0350 	mov.w	r3, #80	; 0x50
 8003dfa:	f383 8811 	msr	BASEPRI, r3
 8003dfe:	f3bf 8f6f 	isb	sy
 8003e02:	f3bf 8f4f 	dsb	sy
 8003e06:	e7fe      	b.n	8003e06 <xTimerCreateStatic+0x28>
 8003e08:	b944      	cbnz	r4, 8003e1c <xTimerCreateStatic+0x3e>
 8003e0a:	f04f 0350 	mov.w	r3, #80	; 0x50
 8003e0e:	f383 8811 	msr	BASEPRI, r3
 8003e12:	f3bf 8f6f 	isb	sy
 8003e16:	f3bf 8f4f 	dsb	sy
 8003e1a:	e7fe      	b.n	8003e1a <xTimerCreateStatic+0x3c>
 8003e1c:	b941      	cbnz	r1, 8003e30 <xTimerCreateStatic+0x52>
 8003e1e:	f04f 0350 	mov.w	r3, #80	; 0x50
 8003e22:	f383 8811 	msr	BASEPRI, r3
 8003e26:	f3bf 8f6f 	isb	sy
 8003e2a:	f3bf 8f4f 	dsb	sy
 8003e2e:	e7fe      	b.n	8003e2e <xTimerCreateStatic+0x50>
 8003e30:	f7ff ff2a 	bl	8003c88 <prvCheckForValidListAndQueue>
 8003e34:	9b08      	ldr	r3, [sp, #32]
 8003e36:	1d20      	adds	r0, r4, #4
 8003e38:	6263      	str	r3, [r4, #36]	; 0x24
 8003e3a:	f8c4 8000 	str.w	r8, [r4]
 8003e3e:	e9c4 5706 	strd	r5, r7, [r4, #24]
 8003e42:	6226      	str	r6, [r4, #32]
 8003e44:	f7fe fdb3 	bl	80029ae <vListInitialiseItem>
 8003e48:	2301      	movs	r3, #1
 8003e4a:	4620      	mov	r0, r4
 8003e4c:	f884 302c 	strb.w	r3, [r4, #44]	; 0x2c
 8003e50:	b002      	add	sp, #8
 8003e52:	e8bd 81f0 	ldmia.w	sp!, {r4, r5, r6, r7, r8, pc}
	...

08003e58 <xTimerGenericCommand>:
 8003e58:	b530      	push	{r4, r5, lr}
 8003e5a:	4615      	mov	r5, r2
 8003e5c:	b085      	sub	sp, #20
 8003e5e:	461a      	mov	r2, r3
 8003e60:	4603      	mov	r3, r0
 8003e62:	b940      	cbnz	r0, 8003e76 <xTimerGenericCommand+0x1e>
 8003e64:	f04f 0350 	mov.w	r3, #80	; 0x50
 8003e68:	f383 8811 	msr	BASEPRI, r3
 8003e6c:	f3bf 8f6f 	isb	sy
 8003e70:	f3bf 8f4f 	dsb	sy
 8003e74:	e7fe      	b.n	8003e74 <xTimerGenericCommand+0x1c>
 8003e76:	4c0d      	ldr	r4, [pc, #52]	; (8003eac <xTimerGenericCommand+0x54>)
 8003e78:	6820      	ldr	r0, [r4, #0]
 8003e7a:	b178      	cbz	r0, 8003e9c <xTimerGenericCommand+0x44>
 8003e7c:	2905      	cmp	r1, #5
 8003e7e:	e9cd 1500 	strd	r1, r5, [sp]
 8003e82:	9302      	str	r3, [sp, #8]
 8003e84:	dc0c      	bgt.n	8003ea0 <xTimerGenericCommand+0x48>
 8003e86:	f7ff fd81 	bl	800398c <xTaskGetSchedulerState>
 8003e8a:	2300      	movs	r3, #0
 8003e8c:	2802      	cmp	r0, #2
 8003e8e:	bf0c      	ite	eq
 8003e90:	9a08      	ldreq	r2, [sp, #32]
 8003e92:	461a      	movne	r2, r3
 8003e94:	4669      	mov	r1, sp
 8003e96:	6820      	ldr	r0, [r4, #0]
 8003e98:	f7fe fefe 	bl	8002c98 <xQueueGenericSend>
 8003e9c:	b005      	add	sp, #20
 8003e9e:	bd30      	pop	{r4, r5, pc}
 8003ea0:	2300      	movs	r3, #0
 8003ea2:	4669      	mov	r1, sp
 8003ea4:	f7fe ffaa 	bl	8002dfc <xQueueGenericSendFromISR>
 8003ea8:	e7f8      	b.n	8003e9c <xTimerGenericCommand+0x44>
 8003eaa:	bf00      	nop
 8003eac:	20000d08 	.word	0x20000d08

08003eb0 <prvSwitchTimerLists>:
 8003eb0:	e92d 41f3 	stmdb	sp!, {r0, r1, r4, r5, r6, r7, r8, lr}
 8003eb4:	f04f 0800 	mov.w	r8, #0
 8003eb8:	4d1a      	ldr	r5, [pc, #104]	; (8003f24 <prvSwitchTimerLists+0x74>)
 8003eba:	682b      	ldr	r3, [r5, #0]
 8003ebc:	681a      	ldr	r2, [r3, #0]
 8003ebe:	b932      	cbnz	r2, 8003ece <prvSwitchTimerLists+0x1e>
 8003ec0:	4a19      	ldr	r2, [pc, #100]	; (8003f28 <prvSwitchTimerLists+0x78>)
 8003ec2:	6811      	ldr	r1, [r2, #0]
 8003ec4:	6013      	str	r3, [r2, #0]
 8003ec6:	6029      	str	r1, [r5, #0]
 8003ec8:	b002      	add	sp, #8
 8003eca:	e8bd 81f0 	ldmia.w	sp!, {r4, r5, r6, r7, r8, pc}
 8003ece:	68db      	ldr	r3, [r3, #12]
 8003ed0:	68dc      	ldr	r4, [r3, #12]
 8003ed2:	681e      	ldr	r6, [r3, #0]
 8003ed4:	1d27      	adds	r7, r4, #4
 8003ed6:	4638      	mov	r0, r7
 8003ed8:	f7fe fd8f 	bl	80029fa <uxListRemove>
 8003edc:	6a63      	ldr	r3, [r4, #36]	; 0x24
 8003ede:	4620      	mov	r0, r4
 8003ee0:	4798      	blx	r3
 8003ee2:	69e3      	ldr	r3, [r4, #28]
 8003ee4:	2b01      	cmp	r3, #1
 8003ee6:	d1e8      	bne.n	8003eba <prvSwitchTimerLists+0xa>
 8003ee8:	69a3      	ldr	r3, [r4, #24]
 8003eea:	4433      	add	r3, r6
 8003eec:	429e      	cmp	r6, r3
 8003eee:	d206      	bcs.n	8003efe <prvSwitchTimerLists+0x4e>
 8003ef0:	6063      	str	r3, [r4, #4]
 8003ef2:	6124      	str	r4, [r4, #16]
 8003ef4:	4639      	mov	r1, r7
 8003ef6:	6828      	ldr	r0, [r5, #0]
 8003ef8:	f7fe fd68 	bl	80029cc <vListInsert>
 8003efc:	e7dd      	b.n	8003eba <prvSwitchTimerLists+0xa>
 8003efe:	2300      	movs	r3, #0
 8003f00:	f8cd 8000 	str.w	r8, [sp]
 8003f04:	4632      	mov	r2, r6
 8003f06:	4619      	mov	r1, r3
 8003f08:	4620      	mov	r0, r4
 8003f0a:	f7ff ffa5 	bl	8003e58 <xTimerGenericCommand>
 8003f0e:	2800      	cmp	r0, #0
 8003f10:	d1d3      	bne.n	8003eba <prvSwitchTimerLists+0xa>
 8003f12:	f04f 0350 	mov.w	r3, #80	; 0x50
 8003f16:	f383 8811 	msr	BASEPRI, r3
 8003f1a:	f3bf 8f6f 	isb	sy
 8003f1e:	f3bf 8f4f 	dsb	sy
 8003f22:	e7fe      	b.n	8003f22 <prvSwitchTimerLists+0x72>
 8003f24:	20000be4 	.word	0x20000be4
 8003f28:	20000be8 	.word	0x20000be8

08003f2c <prvTimerTask>:
 8003f2c:	e92d 4ff0 	stmdb	sp!, {r4, r5, r6, r7, r8, r9, sl, fp, lr}
 8003f30:	4d6d      	ldr	r5, [pc, #436]	; (80040e8 <prvTimerTask+0x1bc>)
 8003f32:	f8df 81c4 	ldr.w	r8, [pc, #452]	; 80040f8 <prvTimerTask+0x1cc>
 8003f36:	462f      	mov	r7, r5
 8003f38:	b087      	sub	sp, #28
 8003f3a:	682b      	ldr	r3, [r5, #0]
 8003f3c:	f8d3 b000 	ldr.w	fp, [r3]
 8003f40:	f1bb 0f00 	cmp.w	fp, #0
 8003f44:	d04b      	beq.n	8003fde <prvTimerTask+0xb2>
 8003f46:	68db      	ldr	r3, [r3, #12]
 8003f48:	f8d3 a000 	ldr.w	sl, [r3]
 8003f4c:	f7ff fae4 	bl	8003518 <vTaskSuspendAll>
 8003f50:	f7ff faea 	bl	8003528 <xTaskGetTickCount>
 8003f54:	4c65      	ldr	r4, [pc, #404]	; (80040ec <prvTimerTask+0x1c0>)
 8003f56:	4681      	mov	r9, r0
 8003f58:	6823      	ldr	r3, [r4, #0]
 8003f5a:	4626      	mov	r6, r4
 8003f5c:	4298      	cmp	r0, r3
 8003f5e:	d240      	bcs.n	8003fe2 <prvTimerTask+0xb6>
 8003f60:	f7ff ffa6 	bl	8003eb0 <prvSwitchTimerLists>
 8003f64:	f8c4 9000 	str.w	r9, [r4]
 8003f68:	f7ff fb74 	bl	8003654 <xTaskResumeAll>
 8003f6c:	f8df 9184 	ldr.w	r9, [pc, #388]	; 80040f4 <prvTimerTask+0x1c8>
 8003f70:	2200      	movs	r2, #0
 8003f72:	a902      	add	r1, sp, #8
 8003f74:	f8d9 0000 	ldr.w	r0, [r9]
 8003f78:	f7fe ffa2 	bl	8002ec0 <xQueueReceive>
 8003f7c:	2800      	cmp	r0, #0
 8003f7e:	d0dc      	beq.n	8003f3a <prvTimerTask+0xe>
 8003f80:	9b02      	ldr	r3, [sp, #8]
 8003f82:	2b00      	cmp	r3, #0
 8003f84:	da03      	bge.n	8003f8e <prvTimerTask+0x62>
 8003f86:	e9dd 0104 	ldrd	r0, r1, [sp, #16]
 8003f8a:	9b03      	ldr	r3, [sp, #12]
 8003f8c:	4798      	blx	r3
 8003f8e:	9b02      	ldr	r3, [sp, #8]
 8003f90:	2b00      	cmp	r3, #0
 8003f92:	dbed      	blt.n	8003f70 <prvTimerTask+0x44>
 8003f94:	9c04      	ldr	r4, [sp, #16]
 8003f96:	6963      	ldr	r3, [r4, #20]
 8003f98:	b113      	cbz	r3, 8003fa0 <prvTimerTask+0x74>
 8003f9a:	1d20      	adds	r0, r4, #4
 8003f9c:	f7fe fd2d 	bl	80029fa <uxListRemove>
 8003fa0:	f7ff fac2 	bl	8003528 <xTaskGetTickCount>
 8003fa4:	6833      	ldr	r3, [r6, #0]
 8003fa6:	4683      	mov	fp, r0
 8003fa8:	4298      	cmp	r0, r3
 8003faa:	d201      	bcs.n	8003fb0 <prvTimerTask+0x84>
 8003fac:	f7ff ff80 	bl	8003eb0 <prvSwitchTimerLists>
 8003fb0:	9a02      	ldr	r2, [sp, #8]
 8003fb2:	f8c6 b000 	str.w	fp, [r6]
 8003fb6:	2a09      	cmp	r2, #9
 8003fb8:	d8da      	bhi.n	8003f70 <prvTimerTask+0x44>
 8003fba:	2301      	movs	r3, #1
 8003fbc:	4093      	lsls	r3, r2
 8003fbe:	f413 7a04 	ands.w	sl, r3, #528	; 0x210
 8003fc2:	d17e      	bne.n	80040c2 <prvTimerTask+0x196>
 8003fc4:	f013 0fc7 	tst.w	r3, #199	; 0xc7
 8003fc8:	d154      	bne.n	8004074 <prvTimerTask+0x148>
 8003fca:	069b      	lsls	r3, r3, #26
 8003fcc:	d5d0      	bpl.n	8003f70 <prvTimerTask+0x44>
 8003fce:	f894 302c 	ldrb.w	r3, [r4, #44]	; 0x2c
 8003fd2:	2b00      	cmp	r3, #0
 8003fd4:	d1cc      	bne.n	8003f70 <prvTimerTask+0x44>
 8003fd6:	4620      	mov	r0, r4
 8003fd8:	f000 fabc 	bl	8004554 <vPortFree>
 8003fdc:	e7c8      	b.n	8003f70 <prvTimerTask+0x44>
 8003fde:	46da      	mov	sl, fp
 8003fe0:	e7b4      	b.n	8003f4c <prvTimerTask+0x20>
 8003fe2:	6020      	str	r0, [r4, #0]
 8003fe4:	f1bb 0f00 	cmp.w	fp, #0
 8003fe8:	d029      	beq.n	800403e <prvTimerTask+0x112>
 8003fea:	4582      	cmp	sl, r0
 8003fec:	d840      	bhi.n	8004070 <prvTimerTask+0x144>
 8003fee:	f7ff fb31 	bl	8003654 <xTaskResumeAll>
 8003ff2:	683b      	ldr	r3, [r7, #0]
 8003ff4:	68db      	ldr	r3, [r3, #12]
 8003ff6:	68dc      	ldr	r4, [r3, #12]
 8003ff8:	1d20      	adds	r0, r4, #4
 8003ffa:	f7fe fcfe 	bl	80029fa <uxListRemove>
 8003ffe:	69e3      	ldr	r3, [r4, #28]
 8004000:	2b01      	cmp	r3, #1
 8004002:	d118      	bne.n	8004036 <prvTimerTask+0x10a>
 8004004:	69a1      	ldr	r1, [r4, #24]
 8004006:	4653      	mov	r3, sl
 8004008:	464a      	mov	r2, r9
 800400a:	4451      	add	r1, sl
 800400c:	4620      	mov	r0, r4
 800400e:	f7ff fe6f 	bl	8003cf0 <prvInsertTimerInActiveList>
 8004012:	b180      	cbz	r0, 8004036 <prvTimerTask+0x10a>
 8004014:	2300      	movs	r3, #0
 8004016:	4652      	mov	r2, sl
 8004018:	9300      	str	r3, [sp, #0]
 800401a:	4619      	mov	r1, r3
 800401c:	4620      	mov	r0, r4
 800401e:	f7ff ff1b 	bl	8003e58 <xTimerGenericCommand>
 8004022:	b940      	cbnz	r0, 8004036 <prvTimerTask+0x10a>
 8004024:	f04f 0350 	mov.w	r3, #80	; 0x50
 8004028:	f383 8811 	msr	BASEPRI, r3
 800402c:	f3bf 8f6f 	isb	sy
 8004030:	f3bf 8f4f 	dsb	sy
 8004034:	e7fe      	b.n	8004034 <prvTimerTask+0x108>
 8004036:	6a63      	ldr	r3, [r4, #36]	; 0x24
 8004038:	4620      	mov	r0, r4
 800403a:	4798      	blx	r3
 800403c:	e796      	b.n	8003f6c <prvTimerTask+0x40>
 800403e:	4b2c      	ldr	r3, [pc, #176]	; (80040f0 <prvTimerTask+0x1c4>)
 8004040:	681b      	ldr	r3, [r3, #0]
 8004042:	681a      	ldr	r2, [r3, #0]
 8004044:	fab2 f282 	clz	r2, r2
 8004048:	0952      	lsrs	r2, r2, #5
 800404a:	4b2a      	ldr	r3, [pc, #168]	; (80040f4 <prvTimerTask+0x1c8>)
 800404c:	ebaa 0109 	sub.w	r1, sl, r9
 8004050:	6818      	ldr	r0, [r3, #0]
 8004052:	f7ff f837 	bl	80030c4 <vQueueWaitForMessageRestricted>
 8004056:	f7ff fafd 	bl	8003654 <xTaskResumeAll>
 800405a:	2800      	cmp	r0, #0
 800405c:	d186      	bne.n	8003f6c <prvTimerTask+0x40>
 800405e:	f04f 5380 	mov.w	r3, #268435456	; 0x10000000
 8004062:	f8c8 3000 	str.w	r3, [r8]
 8004066:	f3bf 8f4f 	dsb	sy
 800406a:	f3bf 8f6f 	isb	sy
 800406e:	e77d      	b.n	8003f6c <prvTimerTask+0x40>
 8004070:	2200      	movs	r2, #0
 8004072:	e7ea      	b.n	800404a <prvTimerTask+0x11e>
 8004074:	69a1      	ldr	r1, [r4, #24]
 8004076:	9b03      	ldr	r3, [sp, #12]
 8004078:	465a      	mov	r2, fp
 800407a:	4419      	add	r1, r3
 800407c:	4620      	mov	r0, r4
 800407e:	f7ff fe37 	bl	8003cf0 <prvInsertTimerInActiveList>
 8004082:	2800      	cmp	r0, #0
 8004084:	f43f af74 	beq.w	8003f70 <prvTimerTask+0x44>
 8004088:	6a63      	ldr	r3, [r4, #36]	; 0x24
 800408a:	4620      	mov	r0, r4
 800408c:	4798      	blx	r3
 800408e:	69e3      	ldr	r3, [r4, #28]
 8004090:	2b01      	cmp	r3, #1
 8004092:	f47f af6d 	bne.w	8003f70 <prvTimerTask+0x44>
 8004096:	69a2      	ldr	r2, [r4, #24]
 8004098:	9903      	ldr	r1, [sp, #12]
 800409a:	f8cd a000 	str.w	sl, [sp]
 800409e:	440a      	add	r2, r1
 80040a0:	4653      	mov	r3, sl
 80040a2:	4651      	mov	r1, sl
 80040a4:	4620      	mov	r0, r4
 80040a6:	f7ff fed7 	bl	8003e58 <xTimerGenericCommand>
 80040aa:	2800      	cmp	r0, #0
 80040ac:	f47f af60 	bne.w	8003f70 <prvTimerTask+0x44>
 80040b0:	f04f 0350 	mov.w	r3, #80	; 0x50
 80040b4:	f383 8811 	msr	BASEPRI, r3
 80040b8:	f3bf 8f6f 	isb	sy
 80040bc:	f3bf 8f4f 	dsb	sy
 80040c0:	e7fe      	b.n	80040c0 <prvTimerTask+0x194>
 80040c2:	9903      	ldr	r1, [sp, #12]
 80040c4:	61a1      	str	r1, [r4, #24]
 80040c6:	b941      	cbnz	r1, 80040da <prvTimerTask+0x1ae>
 80040c8:	f04f 0350 	mov.w	r3, #80	; 0x50
 80040cc:	f383 8811 	msr	BASEPRI, r3
 80040d0:	f3bf 8f6f 	isb	sy
 80040d4:	f3bf 8f4f 	dsb	sy
 80040d8:	e7fe      	b.n	80040d8 <prvTimerTask+0x1ac>
 80040da:	465b      	mov	r3, fp
 80040dc:	465a      	mov	r2, fp
 80040de:	4459      	add	r1, fp
 80040e0:	4620      	mov	r0, r4
 80040e2:	f7ff fe05 	bl	8003cf0 <prvInsertTimerInActiveList>
 80040e6:	e743      	b.n	8003f70 <prvTimerTask+0x44>
 80040e8:	20000be4 	.word	0x20000be4
 80040ec:	20000cb4 	.word	0x20000cb4
 80040f0:	20000be8 	.word	0x20000be8
 80040f4:	20000d08 	.word	0x20000d08
 80040f8:	e000ed04 	.word	0xe000ed04

080040fc <pvTimerGetTimerID>:
 80040fc:	b510      	push	{r4, lr}
 80040fe:	4604      	mov	r4, r0
 8004100:	b940      	cbnz	r0, 8004114 <pvTimerGetTimerID+0x18>
 8004102:	f04f 0350 	mov.w	r3, #80	; 0x50
 8004106:	f383 8811 	msr	BASEPRI, r3
 800410a:	f3bf 8f6f 	isb	sy
 800410e:	f3bf 8f4f 	dsb	sy
 8004112:	e7fe      	b.n	8004112 <pvTimerGetTimerID+0x16>
 8004114:	f000 f85e 	bl	80041d4 <vPortEnterCritical>
 8004118:	6a24      	ldr	r4, [r4, #32]
 800411a:	f000 f87d 	bl	8004218 <vPortExitCritical>
 800411e:	4620      	mov	r0, r4
 8004120:	bd10      	pop	{r4, pc}
	...

08004124 <prvTaskExitError>:
 8004124:	2300      	movs	r3, #0
 8004126:	b082      	sub	sp, #8
 8004128:	9301      	str	r3, [sp, #4]
 800412a:	4b0d      	ldr	r3, [pc, #52]	; (8004160 <prvTaskExitError+0x3c>)
 800412c:	681b      	ldr	r3, [r3, #0]
 800412e:	3301      	adds	r3, #1
 8004130:	d008      	beq.n	8004144 <prvTaskExitError+0x20>
 8004132:	f04f 0350 	mov.w	r3, #80	; 0x50
 8004136:	f383 8811 	msr	BASEPRI, r3
 800413a:	f3bf 8f6f 	isb	sy
 800413e:	f3bf 8f4f 	dsb	sy
 8004142:	e7fe      	b.n	8004142 <prvTaskExitError+0x1e>
 8004144:	f04f 0350 	mov.w	r3, #80	; 0x50
 8004148:	f383 8811 	msr	BASEPRI, r3
 800414c:	f3bf 8f6f 	isb	sy
 8004150:	f3bf 8f4f 	dsb	sy
 8004154:	9b01      	ldr	r3, [sp, #4]
 8004156:	2b00      	cmp	r3, #0
 8004158:	d0fc      	beq.n	8004154 <prvTaskExitError+0x30>
 800415a:	b002      	add	sp, #8
 800415c:	4770      	bx	lr
 800415e:	bf00      	nop
 8004160:	2000000c 	.word	0x2000000c

08004164 <prvPortStartFirstTask>:
 8004164:	4806      	ldr	r0, [pc, #24]	; (8004180 <prvPortStartFirstTask+0x1c>)
 8004166:	6800      	ldr	r0, [r0, #0]
 8004168:	6800      	ldr	r0, [r0, #0]
 800416a:	f380 8808 	msr	MSP, r0
 800416e:	b662      	cpsie	i
 8004170:	b661      	cpsie	f
 8004172:	f3bf 8f4f 	dsb	sy
 8004176:	f3bf 8f6f 	isb	sy
 800417a:	df00      	svc	0
 800417c:	bf00      	nop
 800417e:	0000      	.short	0x0000
 8004180:	e000ed08 	.word	0xe000ed08

08004184 <pxPortInitialiseStack>:
 8004184:	f04f 7380 	mov.w	r3, #16777216	; 0x1000000
 8004188:	f840 3c04 	str.w	r3, [r0, #-4]
 800418c:	4b05      	ldr	r3, [pc, #20]	; (80041a4 <pxPortInitialiseStack+0x20>)
 800418e:	f021 0101 	bic.w	r1, r1, #1
 8004192:	f840 1c08 	str.w	r1, [r0, #-8]
 8004196:	f840 3c0c 	str.w	r3, [r0, #-12]
 800419a:	f840 2c20 	str.w	r2, [r0, #-32]
 800419e:	3840      	subs	r0, #64	; 0x40
 80041a0:	4770      	bx	lr
 80041a2:	bf00      	nop
 80041a4:	08004125 	.word	0x08004125
	...

080041b0 <SVC_Handler>:
 80041b0:	4b07      	ldr	r3, [pc, #28]	; (80041d0 <pxCurrentTCBConst2>)
 80041b2:	6819      	ldr	r1, [r3, #0]
 80041b4:	6808      	ldr	r0, [r1, #0]
 80041b6:	e8b0 0ff0 	ldmia.w	r0!, {r4, r5, r6, r7, r8, r9, sl, fp}
 80041ba:	f380 8809 	msr	PSP, r0
 80041be:	f3bf 8f6f 	isb	sy
 80041c2:	f04f 0000 	mov.w	r0, #0
 80041c6:	f380 8811 	msr	BASEPRI, r0
 80041ca:	f04e 0e0d 	orr.w	lr, lr, #13
 80041ce:	4770      	bx	lr

080041d0 <pxCurrentTCBConst2>:
 80041d0:	200006e8 	.word	0x200006e8

080041d4 <vPortEnterCritical>:
 80041d4:	f04f 0350 	mov.w	r3, #80	; 0x50
 80041d8:	f383 8811 	msr	BASEPRI, r3
 80041dc:	f3bf 8f6f 	isb	sy
 80041e0:	f3bf 8f4f 	dsb	sy
 80041e4:	4a0a      	ldr	r2, [pc, #40]	; (8004210 <vPortEnterCritical+0x3c>)
 80041e6:	6813      	ldr	r3, [r2, #0]
 80041e8:	3301      	adds	r3, #1
 80041ea:	2b01      	cmp	r3, #1
 80041ec:	6013      	str	r3, [r2, #0]
 80041ee:	d10d      	bne.n	800420c <vPortEnterCritical+0x38>
 80041f0:	4b08      	ldr	r3, [pc, #32]	; (8004214 <vPortEnterCritical+0x40>)
 80041f2:	681b      	ldr	r3, [r3, #0]
 80041f4:	f013 0fff 	tst.w	r3, #255	; 0xff
 80041f8:	d008      	beq.n	800420c <vPortEnterCritical+0x38>
 80041fa:	f04f 0350 	mov.w	r3, #80	; 0x50
 80041fe:	f383 8811 	msr	BASEPRI, r3
 8004202:	f3bf 8f6f 	isb	sy
 8004206:	f3bf 8f4f 	dsb	sy
 800420a:	e7fe      	b.n	800420a <vPortEnterCritical+0x36>
 800420c:	4770      	bx	lr
 800420e:	bf00      	nop
 8004210:	2000000c 	.word	0x2000000c
 8004214:	e000ed04 	.word	0xe000ed04

08004218 <vPortExitCritical>:
 8004218:	4a08      	ldr	r2, [pc, #32]	; (800423c <vPortExitCritical+0x24>)
 800421a:	6813      	ldr	r3, [r2, #0]
 800421c:	b943      	cbnz	r3, 8004230 <vPortExitCritical+0x18>
 800421e:	f04f 0350 	mov.w	r3, #80	; 0x50
 8004222:	f383 8811 	msr	BASEPRI, r3
 8004226:	f3bf 8f6f 	isb	sy
 800422a:	f3bf 8f4f 	dsb	sy
 800422e:	e7fe      	b.n	800422e <vPortExitCritical+0x16>
 8004230:	3b01      	subs	r3, #1
 8004232:	6013      	str	r3, [r2, #0]
 8004234:	b90b      	cbnz	r3, 800423a <vPortExitCritical+0x22>
 8004236:	f383 8811 	msr	BASEPRI, r3
 800423a:	4770      	bx	lr
 800423c:	2000000c 	.word	0x2000000c

08004240 <PendSV_Handler>:
 8004240:	f3ef 8009 	mrs	r0, PSP
 8004244:	f3bf 8f6f 	isb	sy
 8004248:	4b0d      	ldr	r3, [pc, #52]	; (8004280 <pxCurrentTCBConst>)
 800424a:	681a      	ldr	r2, [r3, #0]
 800424c:	e920 0ff0 	stmdb	r0!, {r4, r5, r6, r7, r8, r9, sl, fp}
 8004250:	6010      	str	r0, [r2, #0]
 8004252:	e92d 4008 	stmdb	sp!, {r3, lr}
 8004256:	f04f 0050 	mov.w	r0, #80	; 0x50
 800425a:	f380 8811 	msr	BASEPRI, r0
 800425e:	f7ff fa91 	bl	8003784 <vTaskSwitchContext>
 8004262:	f04f 0000 	mov.w	r0, #0
 8004266:	f380 8811 	msr	BASEPRI, r0
 800426a:	e8bd 4008 	ldmia.w	sp!, {r3, lr}
 800426e:	6819      	ldr	r1, [r3, #0]
 8004270:	6808      	ldr	r0, [r1, #0]
 8004272:	e8b0 0ff0 	ldmia.w	r0!, {r4, r5, r6, r7, r8, r9, sl, fp}
 8004276:	f380 8809 	msr	PSP, r0
 800427a:	f3bf 8f6f 	isb	sy
 800427e:	4770      	bx	lr

08004280 <pxCurrentTCBConst>:
 8004280:	200006e8 	.word	0x200006e8

08004284 <SysTick_Handler>:
 8004284:	b508      	push	{r3, lr}
 8004286:	f04f 0350 	mov.w	r3, #80	; 0x50
 800428a:	f383 8811 	msr	BASEPRI, r3
 800428e:	f3bf 8f6f 	isb	sy
 8004292:	f3bf 8f4f 	dsb	sy
 8004296:	f7ff f94d 	bl	8003534 <xTaskIncrementTick>
 800429a:	b118      	cbz	r0, 80042a4 <SysTick_Handler+0x20>
 800429c:	f04f 5280 	mov.w	r2, #268435456	; 0x10000000
 80042a0:	4b02      	ldr	r3, [pc, #8]	; (80042ac <SysTick_Handler+0x28>)
 80042a2:	601a      	str	r2, [r3, #0]
 80042a4:	2300      	movs	r3, #0
 80042a6:	f383 8811 	msr	BASEPRI, r3
 80042aa:	bd08      	pop	{r3, pc}
 80042ac:	e000ed04 	.word	0xe000ed04

080042b0 <vPortSetupTimerInterrupt>:
 80042b0:	2300      	movs	r3, #0
 80042b2:	4a08      	ldr	r2, [pc, #32]	; (80042d4 <vPortSetupTimerInterrupt+0x24>)
 80042b4:	4908      	ldr	r1, [pc, #32]	; (80042d8 <vPortSetupTimerInterrupt+0x28>)
 80042b6:	6013      	str	r3, [r2, #0]
 80042b8:	600b      	str	r3, [r1, #0]
 80042ba:	f44f 717a 	mov.w	r1, #1000	; 0x3e8
 80042be:	4b07      	ldr	r3, [pc, #28]	; (80042dc <vPortSetupTimerInterrupt+0x2c>)
 80042c0:	681b      	ldr	r3, [r3, #0]
 80042c2:	fbb3 f3f1 	udiv	r3, r3, r1
 80042c6:	4906      	ldr	r1, [pc, #24]	; (80042e0 <vPortSetupTimerInterrupt+0x30>)
 80042c8:	3b01      	subs	r3, #1
 80042ca:	600b      	str	r3, [r1, #0]
 80042cc:	2307      	movs	r3, #7
 80042ce:	6013      	str	r3, [r2, #0]
 80042d0:	4770      	bx	lr
 80042d2:	bf00      	nop
 80042d4:	e000e010 	.word	0xe000e010
 80042d8:	e000e018 	.word	0xe000e018
 80042dc:	20000000 	.word	0x20000000
 80042e0:	e000e014 	.word	0xe000e014

080042e4 <xPortStartScheduler>:
 80042e4:	b513      	push	{r0, r1, r4, lr}
 80042e6:	4b27      	ldr	r3, [pc, #156]	; (8004384 <xPortStartScheduler+0xa0>)
 80042e8:	2100      	movs	r1, #0
 80042ea:	781a      	ldrb	r2, [r3, #0]
 80042ec:	b2d2      	uxtb	r2, r2
 80042ee:	9201      	str	r2, [sp, #4]
 80042f0:	22ff      	movs	r2, #255	; 0xff
 80042f2:	701a      	strb	r2, [r3, #0]
 80042f4:	781b      	ldrb	r3, [r3, #0]
 80042f6:	4a24      	ldr	r2, [pc, #144]	; (8004388 <xPortStartScheduler+0xa4>)
 80042f8:	b2db      	uxtb	r3, r3
 80042fa:	f88d 3003 	strb.w	r3, [sp, #3]
 80042fe:	f89d 3003 	ldrb.w	r3, [sp, #3]
 8004302:	f003 0350 	and.w	r3, r3, #80	; 0x50
 8004306:	7013      	strb	r3, [r2, #0]
 8004308:	2207      	movs	r2, #7
 800430a:	4b20      	ldr	r3, [pc, #128]	; (800438c <xPortStartScheduler+0xa8>)
 800430c:	601a      	str	r2, [r3, #0]
 800430e:	f89d 0003 	ldrb.w	r0, [sp, #3]
 8004312:	1e54      	subs	r4, r2, #1
 8004314:	0600      	lsls	r0, r0, #24
 8004316:	d40d      	bmi.n	8004334 <xPortStartScheduler+0x50>
 8004318:	b101      	cbz	r1, 800431c <xPortStartScheduler+0x38>
 800431a:	601a      	str	r2, [r3, #0]
 800431c:	681a      	ldr	r2, [r3, #0]
 800431e:	2a03      	cmp	r2, #3
 8004320:	d011      	beq.n	8004346 <xPortStartScheduler+0x62>
 8004322:	f04f 0350 	mov.w	r3, #80	; 0x50
 8004326:	f383 8811 	msr	BASEPRI, r3
 800432a:	f3bf 8f6f 	isb	sy
 800432e:	f3bf 8f4f 	dsb	sy
 8004332:	e7fe      	b.n	8004332 <xPortStartScheduler+0x4e>
 8004334:	f89d 2003 	ldrb.w	r2, [sp, #3]
 8004338:	2101      	movs	r1, #1
 800433a:	0052      	lsls	r2, r2, #1
 800433c:	b2d2      	uxtb	r2, r2
 800433e:	f88d 2003 	strb.w	r2, [sp, #3]
 8004342:	4622      	mov	r2, r4
 8004344:	e7e3      	b.n	800430e <xPortStartScheduler+0x2a>
 8004346:	2400      	movs	r4, #0
 8004348:	0212      	lsls	r2, r2, #8
 800434a:	f402 62e0 	and.w	r2, r2, #1792	; 0x700
 800434e:	601a      	str	r2, [r3, #0]
 8004350:	9b01      	ldr	r3, [sp, #4]
 8004352:	4a0c      	ldr	r2, [pc, #48]	; (8004384 <xPortStartScheduler+0xa0>)
 8004354:	b2db      	uxtb	r3, r3
 8004356:	7013      	strb	r3, [r2, #0]
 8004358:	4b0d      	ldr	r3, [pc, #52]	; (8004390 <xPortStartScheduler+0xac>)
 800435a:	681a      	ldr	r2, [r3, #0]
 800435c:	f442 0270 	orr.w	r2, r2, #15728640	; 0xf00000
 8004360:	601a      	str	r2, [r3, #0]
 8004362:	681a      	ldr	r2, [r3, #0]
 8004364:	f042 4270 	orr.w	r2, r2, #4026531840	; 0xf0000000
 8004368:	601a      	str	r2, [r3, #0]
 800436a:	f7ff ffa1 	bl	80042b0 <vPortSetupTimerInterrupt>
 800436e:	4b09      	ldr	r3, [pc, #36]	; (8004394 <xPortStartScheduler+0xb0>)
 8004370:	601c      	str	r4, [r3, #0]
 8004372:	f7ff fef7 	bl	8004164 <prvPortStartFirstTask>
 8004376:	f7ff fa05 	bl	8003784 <vTaskSwitchContext>
 800437a:	f7ff fed3 	bl	8004124 <prvTaskExitError>
 800437e:	4620      	mov	r0, r4
 8004380:	b002      	add	sp, #8
 8004382:	bd10      	pop	{r4, pc}
 8004384:	e000e400 	.word	0xe000e400
 8004388:	20000d10 	.word	0x20000d10
 800438c:	20000d14 	.word	0x20000d14
 8004390:	e000ed20 	.word	0xe000ed20
 8004394:	2000000c 	.word	0x2000000c

08004398 <vPortValidateInterruptPriority>:
 8004398:	f3ef 8305 	mrs	r3, IPSR
 800439c:	2b0f      	cmp	r3, #15
 800439e:	d90e      	bls.n	80043be <vPortValidateInterruptPriority+0x26>
 80043a0:	4a10      	ldr	r2, [pc, #64]	; (80043e4 <vPortValidateInterruptPriority+0x4c>)
 80043a2:	5c9b      	ldrb	r3, [r3, r2]
 80043a4:	4a10      	ldr	r2, [pc, #64]	; (80043e8 <vPortValidateInterruptPriority+0x50>)
 80043a6:	7812      	ldrb	r2, [r2, #0]
 80043a8:	429a      	cmp	r2, r3
 80043aa:	d908      	bls.n	80043be <vPortValidateInterruptPriority+0x26>
 80043ac:	f04f 0350 	mov.w	r3, #80	; 0x50
 80043b0:	f383 8811 	msr	BASEPRI, r3
 80043b4:	f3bf 8f6f 	isb	sy
 80043b8:	f3bf 8f4f 	dsb	sy
 80043bc:	e7fe      	b.n	80043bc <vPortValidateInterruptPriority+0x24>
 80043be:	4b0b      	ldr	r3, [pc, #44]	; (80043ec <vPortValidateInterruptPriority+0x54>)
 80043c0:	4a0b      	ldr	r2, [pc, #44]	; (80043f0 <vPortValidateInterruptPriority+0x58>)
 80043c2:	681b      	ldr	r3, [r3, #0]
 80043c4:	6812      	ldr	r2, [r2, #0]
 80043c6:	f403 63e0 	and.w	r3, r3, #1792	; 0x700
 80043ca:	4293      	cmp	r3, r2
 80043cc:	d908      	bls.n	80043e0 <vPortValidateInterruptPriority+0x48>
 80043ce:	f04f 0350 	mov.w	r3, #80	; 0x50
 80043d2:	f383 8811 	msr	BASEPRI, r3
 80043d6:	f3bf 8f6f 	isb	sy
 80043da:	f3bf 8f4f 	dsb	sy
 80043de:	e7fe      	b.n	80043de <vPortValidateInterruptPriority+0x46>
 80043e0:	4770      	bx	lr
 80043e2:	bf00      	nop
 80043e4:	e000e3f0 	.word	0xe000e3f0
 80043e8:	20000d10 	.word	0x20000d10
 80043ec:	e000ed0c 	.word	0xe000ed0c
 80043f0:	20000d14 	.word	0x20000d14

080043f4 <prvInsertBlockIntoFreeList>:
 80043f4:	b510      	push	{r4, lr}
 80043f6:	4b0f      	ldr	r3, [pc, #60]	; (8004434 <prvInsertBlockIntoFreeList+0x40>)
 80043f8:	681a      	ldr	r2, [r3, #0]
 80043fa:	4282      	cmp	r2, r0
 80043fc:	d318      	bcc.n	8004430 <prvInsertBlockIntoFreeList+0x3c>
 80043fe:	685c      	ldr	r4, [r3, #4]
 8004400:	1919      	adds	r1, r3, r4
 8004402:	4288      	cmp	r0, r1
 8004404:	bf01      	itttt	eq
 8004406:	6841      	ldreq	r1, [r0, #4]
 8004408:	4618      	moveq	r0, r3
 800440a:	1909      	addeq	r1, r1, r4
 800440c:	6059      	streq	r1, [r3, #4]
 800440e:	6844      	ldr	r4, [r0, #4]
 8004410:	1901      	adds	r1, r0, r4
 8004412:	428a      	cmp	r2, r1
 8004414:	d107      	bne.n	8004426 <prvInsertBlockIntoFreeList+0x32>
 8004416:	4908      	ldr	r1, [pc, #32]	; (8004438 <prvInsertBlockIntoFreeList+0x44>)
 8004418:	6809      	ldr	r1, [r1, #0]
 800441a:	428a      	cmp	r2, r1
 800441c:	bf1f      	itttt	ne
 800441e:	6851      	ldrne	r1, [r2, #4]
 8004420:	6812      	ldrne	r2, [r2, #0]
 8004422:	1909      	addne	r1, r1, r4
 8004424:	6041      	strne	r1, [r0, #4]
 8004426:	4298      	cmp	r0, r3
 8004428:	6002      	str	r2, [r0, #0]
 800442a:	bf18      	it	ne
 800442c:	6018      	strne	r0, [r3, #0]
 800442e:	bd10      	pop	{r4, pc}
 8004430:	4613      	mov	r3, r2
 8004432:	e7e1      	b.n	80043f8 <prvInsertBlockIntoFreeList+0x4>
 8004434:	20001928 	.word	0x20001928
 8004438:	20000d18 	.word	0x20000d18

0800443c <pvPortMalloc>:
 800443c:	e92d 41f0 	stmdb	sp!, {r4, r5, r6, r7, r8, lr}
 8004440:	4604      	mov	r4, r0
 8004442:	f7ff f869 	bl	8003518 <vTaskSuspendAll>
 8004446:	493d      	ldr	r1, [pc, #244]	; (800453c <pvPortMalloc+0x100>)
 8004448:	4d3d      	ldr	r5, [pc, #244]	; (8004540 <pvPortMalloc+0x104>)
 800444a:	680b      	ldr	r3, [r1, #0]
 800444c:	b9fb      	cbnz	r3, 800448e <pvPortMalloc+0x52>
 800444e:	4a3d      	ldr	r2, [pc, #244]	; (8004544 <pvPortMalloc+0x108>)
 8004450:	2000      	movs	r0, #0
 8004452:	0756      	lsls	r6, r2, #29
 8004454:	f502 6340 	add.w	r3, r2, #3072	; 0xc00
 8004458:	bf0f      	iteee	eq
 800445a:	f44f 6340 	moveq.w	r3, #3072	; 0xc00
 800445e:	3207      	addne	r2, #7
 8004460:	f022 0207 	bicne.w	r2, r2, #7
 8004464:	1a9b      	subne	r3, r3, r2
 8004466:	4413      	add	r3, r2
 8004468:	4e37      	ldr	r6, [pc, #220]	; (8004548 <pvPortMalloc+0x10c>)
 800446a:	3b08      	subs	r3, #8
 800446c:	f023 0307 	bic.w	r3, r3, #7
 8004470:	6070      	str	r0, [r6, #4]
 8004472:	6032      	str	r2, [r6, #0]
 8004474:	e9c3 0000 	strd	r0, r0, [r3]
 8004478:	1a98      	subs	r0, r3, r2
 800447a:	600b      	str	r3, [r1, #0]
 800447c:	e9c2 3000 	strd	r3, r0, [r2]
 8004480:	4b32      	ldr	r3, [pc, #200]	; (800454c <pvPortMalloc+0x110>)
 8004482:	6018      	str	r0, [r3, #0]
 8004484:	4b32      	ldr	r3, [pc, #200]	; (8004550 <pvPortMalloc+0x114>)
 8004486:	6018      	str	r0, [r3, #0]
 8004488:	f04f 4300 	mov.w	r3, #2147483648	; 0x80000000
 800448c:	602b      	str	r3, [r5, #0]
 800448e:	682f      	ldr	r7, [r5, #0]
 8004490:	4227      	tst	r7, r4
 8004492:	d14d      	bne.n	8004530 <pvPortMalloc+0xf4>
 8004494:	2c00      	cmp	r4, #0
 8004496:	d03e      	beq.n	8004516 <pvPortMalloc+0xda>
 8004498:	f104 0308 	add.w	r3, r4, #8
 800449c:	0758      	lsls	r0, r3, #29
 800449e:	bf1c      	itt	ne
 80044a0:	f023 0307 	bicne.w	r3, r3, #7
 80044a4:	3308      	addne	r3, #8
 80044a6:	2b00      	cmp	r3, #0
 80044a8:	d042      	beq.n	8004530 <pvPortMalloc+0xf4>
 80044aa:	4a29      	ldr	r2, [pc, #164]	; (8004550 <pvPortMalloc+0x114>)
 80044ac:	6816      	ldr	r6, [r2, #0]
 80044ae:	4690      	mov	r8, r2
 80044b0:	429e      	cmp	r6, r3
 80044b2:	d33d      	bcc.n	8004530 <pvPortMalloc+0xf4>
 80044b4:	4a24      	ldr	r2, [pc, #144]	; (8004548 <pvPortMalloc+0x10c>)
 80044b6:	6815      	ldr	r5, [r2, #0]
 80044b8:	6868      	ldr	r0, [r5, #4]
 80044ba:	4298      	cmp	r0, r3
 80044bc:	d201      	bcs.n	80044c2 <pvPortMalloc+0x86>
 80044be:	682c      	ldr	r4, [r5, #0]
 80044c0:	b9a4      	cbnz	r4, 80044ec <pvPortMalloc+0xb0>
 80044c2:	6809      	ldr	r1, [r1, #0]
 80044c4:	42a9      	cmp	r1, r5
 80044c6:	d033      	beq.n	8004530 <pvPortMalloc+0xf4>
 80044c8:	6829      	ldr	r1, [r5, #0]
 80044ca:	6814      	ldr	r4, [r2, #0]
 80044cc:	6011      	str	r1, [r2, #0]
 80044ce:	1ac2      	subs	r2, r0, r3
 80044d0:	2a10      	cmp	r2, #16
 80044d2:	d912      	bls.n	80044fa <pvPortMalloc+0xbe>
 80044d4:	18e8      	adds	r0, r5, r3
 80044d6:	0741      	lsls	r1, r0, #29
 80044d8:	d00b      	beq.n	80044f2 <pvPortMalloc+0xb6>
 80044da:	f04f 0350 	mov.w	r3, #80	; 0x50
 80044de:	f383 8811 	msr	BASEPRI, r3
 80044e2:	f3bf 8f6f 	isb	sy
 80044e6:	f3bf 8f4f 	dsb	sy
 80044ea:	e7fe      	b.n	80044ea <pvPortMalloc+0xae>
 80044ec:	462a      	mov	r2, r5
 80044ee:	4625      	mov	r5, r4
 80044f0:	e7e2      	b.n	80044b8 <pvPortMalloc+0x7c>
 80044f2:	6042      	str	r2, [r0, #4]
 80044f4:	606b      	str	r3, [r5, #4]
 80044f6:	f7ff ff7d 	bl	80043f4 <prvInsertBlockIntoFreeList>
 80044fa:	686b      	ldr	r3, [r5, #4]
 80044fc:	4913      	ldr	r1, [pc, #76]	; (800454c <pvPortMalloc+0x110>)
 80044fe:	1af6      	subs	r6, r6, r3
 8004500:	431f      	orrs	r7, r3
 8004502:	2300      	movs	r3, #0
 8004504:	6808      	ldr	r0, [r1, #0]
 8004506:	f8c8 6000 	str.w	r6, [r8]
 800450a:	4286      	cmp	r6, r0
 800450c:	bf38      	it	cc
 800450e:	600e      	strcc	r6, [r1, #0]
 8004510:	3408      	adds	r4, #8
 8004512:	606f      	str	r7, [r5, #4]
 8004514:	602b      	str	r3, [r5, #0]
 8004516:	f7ff f89d 	bl	8003654 <xTaskResumeAll>
 800451a:	0763      	lsls	r3, r4, #29
 800451c:	d00a      	beq.n	8004534 <pvPortMalloc+0xf8>
 800451e:	f04f 0350 	mov.w	r3, #80	; 0x50
 8004522:	f383 8811 	msr	BASEPRI, r3
 8004526:	f3bf 8f6f 	isb	sy
 800452a:	f3bf 8f4f 	dsb	sy
 800452e:	e7fe      	b.n	800452e <pvPortMalloc+0xf2>
 8004530:	2400      	movs	r4, #0
 8004532:	e7f0      	b.n	8004516 <pvPortMalloc+0xda>
 8004534:	4620      	mov	r0, r4
 8004536:	e8bd 81f0 	ldmia.w	sp!, {r4, r5, r6, r7, r8, pc}
 800453a:	bf00      	nop
 800453c:	20000d18 	.word	0x20000d18
 8004540:	2000191c 	.word	0x2000191c
 8004544:	20000d1c 	.word	0x20000d1c
 8004548:	20001928 	.word	0x20001928
 800454c:	20001924 	.word	0x20001924
 8004550:	20001920 	.word	0x20001920

08004554 <vPortFree>:
 8004554:	b510      	push	{r4, lr}
 8004556:	4604      	mov	r4, r0
 8004558:	b370      	cbz	r0, 80045b8 <vPortFree+0x64>
 800455a:	4a18      	ldr	r2, [pc, #96]	; (80045bc <vPortFree+0x68>)
 800455c:	f850 3c04 	ldr.w	r3, [r0, #-4]
 8004560:	6812      	ldr	r2, [r2, #0]
 8004562:	4213      	tst	r3, r2
 8004564:	d108      	bne.n	8004578 <vPortFree+0x24>
 8004566:	f04f 0350 	mov.w	r3, #80	; 0x50
 800456a:	f383 8811 	msr	BASEPRI, r3
 800456e:	f3bf 8f6f 	isb	sy
 8004572:	f3bf 8f4f 	dsb	sy
 8004576:	e7fe      	b.n	8004576 <vPortFree+0x22>
 8004578:	f850 1c08 	ldr.w	r1, [r0, #-8]
 800457c:	b141      	cbz	r1, 8004590 <vPortFree+0x3c>
 800457e:	f04f 0350 	mov.w	r3, #80	; 0x50
 8004582:	f383 8811 	msr	BASEPRI, r3
 8004586:	f3bf 8f6f 	isb	sy
 800458a:	f3bf 8f4f 	dsb	sy
 800458e:	e7fe      	b.n	800458e <vPortFree+0x3a>
 8004590:	ea23 0302 	bic.w	r3, r3, r2
 8004594:	f840 3c04 	str.w	r3, [r0, #-4]
 8004598:	f7fe ffbe 	bl	8003518 <vTaskSuspendAll>
 800459c:	4a08      	ldr	r2, [pc, #32]	; (80045c0 <vPortFree+0x6c>)
 800459e:	f854 3c04 	ldr.w	r3, [r4, #-4]
 80045a2:	6811      	ldr	r1, [r2, #0]
 80045a4:	f1a4 0008 	sub.w	r0, r4, #8
 80045a8:	440b      	add	r3, r1
 80045aa:	6013      	str	r3, [r2, #0]
 80045ac:	f7ff ff22 	bl	80043f4 <prvInsertBlockIntoFreeList>
 80045b0:	e8bd 4010 	ldmia.w	sp!, {r4, lr}
 80045b4:	f7ff b84e 	b.w	8003654 <xTaskResumeAll>
 80045b8:	bd10      	pop	{r4, pc}
 80045ba:	bf00      	nop
 80045bc:	2000191c 	.word	0x2000191c
 80045c0:	20001920 	.word	0x20001920

080045c4 <__libc_init_array>:
 80045c4:	b570      	push	{r4, r5, r6, lr}
 80045c6:	2500      	movs	r5, #0
 80045c8:	4e0c      	ldr	r6, [pc, #48]	; (80045fc <__libc_init_array+0x38>)
 80045ca:	4c0d      	ldr	r4, [pc, #52]	; (8004600 <__libc_init_array+0x3c>)
 80045cc:	1ba4      	subs	r4, r4, r6
 80045ce:	10a4      	asrs	r4, r4, #2
 80045d0:	42a5      	cmp	r5, r4
 80045d2:	d109      	bne.n	80045e8 <__libc_init_array+0x24>
 80045d4:	f000 f82e 	bl	8004634 <_init>
 80045d8:	2500      	movs	r5, #0
 80045da:	4e0a      	ldr	r6, [pc, #40]	; (8004604 <__libc_init_array+0x40>)
 80045dc:	4c0a      	ldr	r4, [pc, #40]	; (8004608 <__libc_init_array+0x44>)
 80045de:	1ba4      	subs	r4, r4, r6
 80045e0:	10a4      	asrs	r4, r4, #2
 80045e2:	42a5      	cmp	r5, r4
 80045e4:	d105      	bne.n	80045f2 <__libc_init_array+0x2e>
 80045e6:	bd70      	pop	{r4, r5, r6, pc}
 80045e8:	f856 3025 	ldr.w	r3, [r6, r5, lsl #2]
 80045ec:	4798      	blx	r3
 80045ee:	3501      	adds	r5, #1
 80045f0:	e7ee      	b.n	80045d0 <__libc_init_array+0xc>
 80045f2:	f856 3025 	ldr.w	r3, [r6, r5, lsl #2]
 80045f6:	4798      	blx	r3
 80045f8:	3501      	adds	r5, #1
 80045fa:	e7f2      	b.n	80045e2 <__libc_init_array+0x1e>
 80045fc:	080047a4 	.word	0x080047a4
 8004600:	080047a4 	.word	0x080047a4
 8004604:	080047a4 	.word	0x080047a4
 8004608:	080047a8 	.word	0x080047a8

0800460c <memcpy>:
 800460c:	b510      	push	{r4, lr}
 800460e:	1e43      	subs	r3, r0, #1
 8004610:	440a      	add	r2, r1
 8004612:	4291      	cmp	r1, r2
 8004614:	d100      	bne.n	8004618 <memcpy+0xc>
 8004616:	bd10      	pop	{r4, pc}
 8004618:	f811 4b01 	ldrb.w	r4, [r1], #1
 800461c:	f803 4f01 	strb.w	r4, [r3, #1]!
 8004620:	e7f7      	b.n	8004612 <memcpy+0x6>

08004622 <memset>:
 8004622:	4603      	mov	r3, r0
 8004624:	4402      	add	r2, r0
 8004626:	4293      	cmp	r3, r2
 8004628:	d100      	bne.n	800462c <memset+0xa>
 800462a:	4770      	bx	lr
 800462c:	f803 1b01 	strb.w	r1, [r3], #1
 8004630:	e7f9      	b.n	8004626 <memset+0x4>
	...

08004634 <_init>:
 8004634:	b5f8      	push	{r3, r4, r5, r6, r7, lr}
 8004636:	bf00      	nop
 8004638:	bcf8      	pop	{r3, r4, r5, r6, r7}
 800463a:	bc08      	pop	{r3}
 800463c:	469e      	mov	lr, r3
 800463e:	4770      	bx	lr

08004640 <_fini>:
 8004640:	b5f8      	push	{r3, r4, r5, r6, r7, lr}
 8004642:	bf00      	nop
 8004644:	bcf8      	pop	{r3, r4, r5, r6, r7}
 8004646:	bc08      	pop	{r3}
 8004648:	469e      	mov	lr, r3
 800464a:	4770      	bx	lr
